(lp0
Va
p1
aV.
p2
aVon
p3
aVof
p4
aVthe
p5
aVin
p6
aVwith
p7
aVand
p8
aVis
p9
aVman
p10
aVto
p11
aVsitting
p12
aVan
p13
aVtwo
p14
aV,
p15
aVat
p16
aVstanding
p17
aVnext
p18
aVpeople
p19
aVare
p20
aVwhite
p21
aVwoman
p22
aVtable
p23
aVstreet
p24
aVlarge
p25
aVit
p26
aVthat
p27
aVholding
p28
aVtop
p29
aVgroup
p30
aVfield
p31
aVdown
p32
aVperson
p33
aVsome
p34
aVup
p35
aVblack
p36
aVsmall
p37
aVnear
p38
aVtrain
p39
aVdog
p40
aVtennis
p41
aVroom
p42
aVred
p43
aVfront
p44
aVyoung
p45
aVhis
p46
aVplate
p47
aVriding
p48
aVcat
p49
aVby
p50
aVbaseball
p51
aVkitchen
p52
aVwater
p53
aVwalking
p54
aVblue
p55
aVhas
p56
aVbus
p57
aVgrass
p58
aVfood
p59
aVgreen
p60
aVbathroom
p61
aVwhile
p62
aVparked
p63
aVplaying
p64
aVlooking
p65
aVsign
p66
aVbed
p67
aVother
p68
aVside
p69
aVthere
p70
aVboy
p71
aVball
p72
aVbeach
p73
aVpizza
p74
aVflying
p75
aVsnow
p76
aVcouple
p77
aVroad
p78
aVbuilding
p79
aVthree
p80
aVcake
p81
aVfor
p82
aVher
p83
aVmen
p84
aVbrown
p85
aVout
p86
aVbear
p87
aVlaying
p88
aVcity
p89
aVtoilet
p90
aVgirl
p91
aVskateboard
p92
aVplayer
p93
aVfrom
p94
aVgame
p95
aVeating
p96
aVlaptop
p97
aVsits
p98
aVtheir
p99
aVclock
p100
aVwearing
p101
aVaround
p102
aVhorse
p103
aVseveral
p104
aVcomputer
p105
aVair
p106
aVover
p107
aVone
p108
aVwooden
p109
aVthrough
p110
aVmotorcycle
p111
aVarea
p112
aVliving
p113
aVsink
p114
aVwindow
p115
aVpicture
p116
aVfilled
p117
aVboard
p118
aVoutside
p119
aVtruck
p120
aVmany
p121
aVlittle
p122
aVyellow
p123
aVcar
p124
aVphone
p125
aVgiraffe
p126
aVbench
p127
aVas
p128
aVcovered
p129
aVtree
p130
aV's
p131
aVunder
p132
aVwall
p133
aVelephant
p134
aVumbrella
p135
aVeach
p136
aVopen
p137
aVclose
p138
aVinto
p139
aVtrees
p140
aVvery
p141
aVtogether
p142
aVkite
p143
aVfire
p144
aVthis
p145
aVdesk
p146
aVfrisbee
p147
aVteddy
p148
aVpark
p149
aVchild
p150
aVcouch
p151
aVits
p152
aVbackground
p153
aVbowl
p154
aVzebra
p155
aVboat
p156
aVmirror
p157
aVsky
p158
aVcounter
p159
aVold
p160
aVtraffic
p161
aVstop
p162
aVbig
p163
aVcourt
p164
aVchair
p165
aVhand
p166
aVbat
p167
aVgrassy
p168
aVsandwich
p169
aVskis
p170
aVbehind
p171
aVhydrant
p172
aVinside
p173
aVdifferent
p174
aVshirt
p175
aVstands
p176
aVanother
p177
aVphoto
p178
aVcows
p179
aVhorses
p180
aVsurfboard
p181
aVwomen
p182
aVback
p183
aVbird
p184
aVsheep
p185
aVfence
p186
aVocean
p187
aVbunch
p188
aVlight
p189
aVairplane
p190
aVsidewalk
p191
aVlot
p192
aVflowers
p193
aVplane
p194
aVbeing
p195
aVbaby
p196
aVcars
p197
aVview
p198
aVdriving
p199
aVorange
p200
aVvegetables
p201
aVstand
p202
aVfloor
p203
aVcell
p204
aVtall
p205
aVtower
p206
aVwave
p207
aVelephants
p208
aValong
p209
aVbananas
p210
aVdirt
p211
aVglass
p212
aVgiraffes
p213
aVsit
p214
aVground
p215
aVready
p216
aVzebras
p217
aVgrazing
p218
aVmiddle
p219
aVoff
p220
aVstation
p221
aVvase
p222
aVluggage
p223
aVtie
p224
aVbike
p225
aVcow
p226
aVdouble
p227
aVskate
p228
aVracket
p229
aVtracks
p230
aVkeyboard
p231
aVday
p232
aVslope
p233
aVsnowy
p234
aVparking
p235
aVfour
p236
aVfull
p237
aVbeside
p238
aVhead
p239
aVherd
p240
aVhanging
p241
aVacross
p242
aVrefrigerator
p243
aVkites
p244
aVstuffed
p245
aVtv
p246
aVsigns
p247
aVabove
p248
aVpiece
p249
aVhill
p250
aVstove
p251
aVimage
p252
aVtaking
p253
aVcutting
p254
aVwine
p255
aVsuit
p256
aVcamera
p257
aVmountain
p258
aVskiing
p259
aVsmiling
p260
aVdisplay
p261
aVdoing
p262
aVchairs
p263
aVcoffee
p264
aVduring
p265
aVairport
p266
aVsomething
p267
aVhot
p268
aVcorner
p269
aVski
p270
aVlots
p271
aVvideo
p272
aVtopped
p273
aVfruit
p274
aVbedroom
p275
aVguy
p276
aVlady
p277
aVholds
p278
aVhit
p279
aVsoccer
p280
aVwatching
p281
aVlong
p282
aVgetting
p283
aVcrowd
p284
aVpaper
p285
aVanimals
p286
aVglasses
p287
aVagainst
p288
aVtrack
p289
aVpole
p290
aVvarious
p291
aVplates
p292
aVtelevision
p293
aVempty
p294
aVthem
p295
aVcut
p296
aVgoing
p297
aVdecker
p298
aVlooks
p299
aVset
p300
aVdogs
p301
aVoven
p302
aVusing
p303
aVposing
p304
aVpink
p305
aVchildren
p306
aVbroccoli
p307
aVwii
p308
aVlights
p309
aVbox
p310
aVabout
p311
aVnight
p312
aVpair
p313
aVrunning
p314
aVhat
p315
aVcolorful
p316
aVmotorcycles
p317
aVmetal
p318
aVriver
p319
aVswinging
p320
aVbottle
p321
aVwood
p322
aVbrick
p323
aVdoor
p324
aVcarrying
p325
aVitems
p326
aVtraveling
p327
aVboats
p328
aVpreparing
p329
aVhigh
p330
aVramp
p331
aVtrick
p332
aVbears
p333
aVremote
p334
aVtalking
p335
aVsurf
p336
aVwho
p337
aVwalk
p338
aVshower
p339
aVscreen
p340
aVbe
p341
aVsleeping
p342
aVdressed
p343
aVjumping
p344
aVmeat
p345
aVskateboarder
p346
aVbuildings
p347
aVall
p348
aVpulling
p349
aVumbrellas
p350
aVpassenger
p351
aVrunway
p352
aVbanana
p353
aVgray
p354
aVwaiting
p355
aVtray
p356
aVline
p357
aVbirds
p358
aVcarrots
p359
aVcup
p360
aVrestaurant
p361
aVbicycle
p362
aVleaning
p363
aVhalf
p364
aVenclosure
p365
aVmicrowave
p366
aVbody
p367
aVnumber
p368
aVjet
p369
aVcabinets
p370
aVcheese
p371
aVscissors
p372
aVmouth
p373
aVwalks
p374
aVcan
p375
aVface
p376
aVmouse
p377
aVbuses
p378
aVsomeone
p379
aVracquet
p380
aVfurniture
p381
aVbusy
p382
aVlush
p383
aVwalls
p384
aVswing
p385
aVbook
p386
aVway
p387
aVcolored
p388
aVhands
p389
aVdrinking
p390
aVoranges
p391
aVskier
p392
aVdark
p393
aVmale
p394
aVanimal
p395
aVgrey
p396
aVbag
p397
aVplayers
p398
aVlook
p399
aVseen
p400
aVlike
p401
aVclean
p402
aVrow
p403
aVhouse
p404
aVzoo
p405
aVfork
p406
aVpile
p407
aVhair
p408
aVlying
p409
aVhim
p410
aVfew
p411
aVpast
p412
aVbikes
p413
aVsurrounded
p414
aVthrowing
p415
aVlake
p416
aVintersection
p417
aVhome
p418
aVbatter
p419
aVplay
p420
aVsnowboard
p421
aVshowing
p422
aVphotograph
p423
aVcontroller
p424
aVgirls
p425
aVkid
p426
aVknife
p427
aVrides
p428
aVdining
p429
aVstore
p430
aVmade
p431
aVattached
p432
aVmaking
p433
aVdecorated
p434
aVbirthday
p435
aVtables
p436
aVkids
p437
aVolder
p438
aVmeal
p439
aVfemale
p440
aVchocolate
p441
aVplastic
p442
aVsun
p443
aVstone
p444
aVjacket
p445
aVfly
p446
aVtub
p447
aVsuitcase
p448
aVcomputers
p449
aVunderneath
p450
aVslice
p451
aVshown
p452
aVskiers
p453
aVpan
p454
aVsurfer
p455
aVonto
p456
aVplants
p457
aVfries
p458
aVsilver
p459
aVsurfing
p460
aVbread
p461
aVpictures
p462
aVsalad
p463
aVadult
p464
aVgathered
p465
aVcrossing
p466
aVpolice
p467
aVhe
p468
aVoutdoor
p469
aVforest
p470
aVbeautiful
p471
aVsurface
p472
aVmeter
p473
aVhave
p474
aVplatform
p475
aVlap
p476
aVcross
p477
aV``
p478
aVsand
p479
aVwaves
p480
aVdishes
p481
aVuniform
p482
aVbetween
p483
aVbase
p484
aVpitch
p485
aVsliced
p486
aVmonitor
p487
aVplanes
p488
aVyard
p489
aVtoy
p490
aVno
p491
aVcloudy
p492
aVshelf
p493
aVtypes
p494
aVscene
p495
aVblanket
p496
aVpurple
p497
aVpen
p498
aVlined
p499
aVrain
p500
aV''
p501
aVrocks
p502
aVfruits
p503
aVdrink
p504
aVtowards
p505
aVboards
p506
aVcute
p507
aVbrushing
p508
aVpath
p509
aVmotor
p510
aVbowls
p511
aVpost
p512
aVstopped
p513
aVplaced
p514
aVteeth
p515
aVleaves
p516
aVbridge
p517
aVbath
p518
aVtarmac
p519
aVvintage
p520
aVresting
p521
aVhaving
p522
aVhitting
p523
aVskateboarding
p524
aVoffice
p525
aVvases
p526
aVtrying
p527
aVfamily
p528
aVpretty
p529
aVvehicle
p530
aVbottles
p531
aVbasket
p532
aVpublic
p533
aVvehicles
p534
aVbeen
p535
aVcatch
p536
aVwoods
p537
aVtricks
p538
aVpoles
p539
aVreflection
p540
aVreading
p541
aVpasture
p542
aVcoming
p543
aVboys
p544
aVlamp
p545
aVend
p546
aVwatch
p547
aVsetting
p548
aVdrinks
p549
aVplant
p550
aVor
p551
aVwindows
p552
aVedge
p553
aVbright
p554
aVtrunk
p555
aVgear
p556
aVstriped
p557
aVsandy
p558
aVfeeding
p559
aVmultiple
p560
aVdonuts
p561
aVmoving
p562
aVnice
p563
aVtrains
p564
aVphones
p565
aVshows
p566
aVmounted
p567
aVassortment
p568
aVdonut
p569
aVtrucks
p570
aVeat
p571
aVflower
p572
aVcurb
p573
aVride
p574
aVcenter
p575
aVsofa
p576
aVpot
p577
aVperched
p578
aVpulled
p579
aVpieces
p580
aVcart
p581
aVlit
p582
aVtiled
p583
aVjust
p584
aVpizzas
p585
aVshot
p586
aVseat
p587
aVtown
p588
aVairplanes
p589
aVbeer
p590
aVcontaining
p591
aVmother
p592
aVcouches
p593
aVshe
p594
aVplace
p595
aVstatue
p596
aVbicycles
p597
aVpassengers
p598
aVtake
p599
aVsunny
p600
aVvariety
p601
aVrocky
p602
aVapples
p603
aVdry
p604
aVfloating
p605
aVrock
p606
aVpillows
p607
aVappliances
p608
aVmountains
p609
aVchicken
p610
aVbelow
p611
aVlawn
p612
aVdress
p613
aVsauce
p614
aVhighway
p615
aVboarding
p616
aVbooks
p617
aVswimming
p618
aVwork
p619
aVcattle
p620
aVdisplayed
p621
aVthrow
p622
aVcats
p623
aVmodern
p624
aVshop
p625
aVlaptops
p626
aVpassing
p627
aVmatch
p628
aVsunglasses
p629
aVhelmet
p630
aVtowel
p631
aVdish
p632
aVflat
p633
aVshore
p634
aVchips
p635
aVcooking
p636
aVwatches
p637
aVsteel
p638
aVwet
p639
aVreaching
p640
aVnintendo
p641
aVtile
p642
aVenjoying
p643
aVtrash
p644
aVhotel
p645
aVflies
p646
aVtime
p647
aVwhere
p648
aVgraffiti
p649
aVconcrete
p650
aVpainting
p651
aVcandles
p652
aVrun
p653
aVplays
p654
aVclothes
p655
aVarms
p656
aVsingle
p657
aVprepares
p658
aVschool
p659
aVrider
p660
aVengine
p661
aVkneeling
p662
aVwild
p663
aVbrush
p664
aVcountry
p665
aVhay
p666
aVsquare
p667
aVsurfboards
p668
aVcream
p669
aVatop
p670
aVfive
p671
aVthey
p672
aVrail
p673
aVkitten
p674
aVmarket
p675
aVasian
p676
aVsoup
p677
aVrailroad
p678
aVglove
p679
aVledge
p680
aVmug
p681
aVdinner
p682
aVshaped
p683
aVspoon
p684
aVlays
p685
aVsuitcases
p686
aVphotos
p687
aVdock
p688
aVshorts
p689
aVnot
p690
aVstaring
p691
aVship
p692
aVdesktop
p693
aVpolar
p694
aVcatcher
p695
aVcontrol
p696
aVincluding
p697
aVcellphone
p698
aVtoppings
p699
aVslices
p700
aVfrench
p701
aVguys
p702
aVneck
p703
aVfenced
p704
aVhillside
p705
aVgiant
p706
aVfireplace
p707
aVpicnic
p708
aVfridge
p709
aVtomatoes
p710
aVdoughnut
p711
aVmilitary
p712
aVrice
p713
aVteam
p714
aVframe
p715
aVbeds
p716
aVserving
p717
aVsnowboarder
p718
aVtakes
p719
aVbushes
p720
aVfoot
p721
aVeaten
p722
aVboth
p723
aVreads
p724
aVleft
p725
aVshoes
p726
aVtrail
p727
aVpapers
p728
aVarm
p729
aVapple
p730
aVonions
p731
aVwhich
p732
aVpainted
p733
aVright
p734
aVjets
p735
aVgraze
p736
aVdoes
p737
aVseated
p738
aVtrailer
p739
aVfloors
p740
aVsame
p741
aVceiling
p742
aVwedding
p743
aVclouds
p744
aVcatching
p745
aVsticking
p746
aVflag
p747
aVart
p748
aVsurfers
p749
aVcarrot
p750
aVshelves
p751
aVposes
p752
aVblender
p753
aVwire
p754
aVblurry
p755
aVpitcher
p756
aVgrill
p757
aVhouses
p758
aVjuice
p759
aVadults
p760
aVcommercial
p761
aVwell
p762
aVbefore
p763
aVcement
p764
aVbar
p765
aVround
p766
aVrestroom
p767
aVisland
p768
aVcrowded
p769
aVhard
p770
aVputting
p771
aVchristmas
p772
aVcluttered
p773
aVstall
p774
aVoutdoors
p775
aVlegs
p776
aVworking
p777
aVcontainer
p778
aVbite
p779
aVdirty
p780
aVrack
p781
aVcage
p782
aVpillow
p783
aVtoward
p784
aValongside
p785
aVclear
p786
aVscooter
p787
aVgo
p788
aVwrapped
p789
aVindoor
p790
aVdistance
p791
aVbags
p792
aVnarrow
p793
aVcakes
p794
aVpartially
p795
aVcase
p796
aVthrows
p797
aVrainy
p798
aVpotted
p799
aVrest
p800
aVrace
p801
aVafter
p802
aVflock
p803
aVcap
p804
aVprofessional
p805
aVheld
p806
aVpool
p807
aVevent
p808
aVdoughnuts
p809
aVsausage
p810
aVstainless
p811
aVlunch
p812
aVpepperoni
p813
aVfacing
p814
aVcooked
p815
aVothers
p816
aVpots
p817
aVbun
p818
aVswings
p819
aVbunk
p820
aVformation
p821
aVgames
p822
aVboxes
p823
aVdrives
p824
aVlone
p825
aVboarder
p826
aVthings
p827
aVtops
p828
aVhole
p829
aVadvertisement
p830
aVapproaching
p831
aVchurch
p832
aVgarden
p833
aVbunches
p834
aVbathtub
p835
aVclocks
p836
aVconstruction
p837
aVaway
p838
aVclothing
p839
aVuse
p840
aVequipment
p841
aVstreets
p842
aVtaken
p843
aVhimself
p844
aVparty
p845
aVoverhead
p846
aVmake
p847
aVperforming
p848
aVeyes
p849
aVget
p850
aVeats
p851
aVcups
p852
aVpeppers
p853
aVtowels
p854
aVpipe
p855
aVforeground
p856
aVurinals
p857
aVpond
p858
aVshade
p859
aVstyle
p860
aVuniforms
p861
aVcloth
p862
aVmustard
p863
aVtan
p864
aVtrays
p865
aVbranch
p866
aVwind
p867
aVsubway
p868
aValone
p869
aVwinter
p870
aVketchup
p871
aVcolor
p872
aVpans
p873
aVgold
p874
aVfresh
p875
aVmakes
p876
aVtied
p877
aVdevice
p878
aVcommuter
p879
aVumpire
p880
aVspace
p881
aVnearby
p882
aVbusiness
p883
aVpointing
p884
aVcontains
p885
aVdocked
p886
aVpaved
p887
aVpastries
p888
aVcarriage
p889
aVrests
p890
aVroof
p891
aVfeatures
p892
aVgrilled
p893
aVfashioned
p894
aVbroken
p895
aVwalkway
p896
aVindustrial
p897
aVpart
p898
aVgas
p899
aVcurtain
p900
aVplain
p901
aVfrosted
p902
aVdecorative
p903
aVpotatoes
p904
aVtransit
p905
aVlamps
p906
aVbrightly
p907
aVwhat
p908
aVtoddler
p909
aVpants
p910
aVpasta
p911
aVhow
p912
aVbackpack
p913
aVstadium
p914
aVsteps
p915
aVroll
p916
aVcourse
p917
aVskies
p918
aVland
p919
aVharbor
p920
aVwas
p921
aVopened
p922
aVsmart
p923
aVused
p924
aVsmiles
p925
aVskirt
p926
aVcostume
p927
aVsoldiers
p928
aVleague
p929
aVutensils
p930
aVlandscape
p931
aVtype
p932
aVtiny
p933
aVvegetable
p934
aVlanding
p935
aVmilk
p936
aVclose-up
p937
aVshow
p938
aVtour
p939
aVstacked
p940
aVserved
p941
aVarranged
p942
aVsill
p943
aVfun
p944
aVflags
p945
aVoverlooking
p946
aVdessert
p947
aVice
p948
aVsays
p949
aVwide
p950
aVcabinet
p951
aVshort
p952
aVkind
p953
aVbarn
p954
aVloading
p955
aVvan
p956
aVkinds
p957
aVornate
p958
aVmachine
p959
aVdoors
p960
aVobject
p961
aVfalling
p962
aVairliner
p963
aVtabby
p964
aVducks
p965
aVskateboards
p966
aVpalm
p967
aVfighter
p968
aVresidential
p969
aVcloseup
p970
aVsinks
p971
aVsmoke
p972
aVdo
p973
aVruns
p974
aVwheel
p975
aVappears
p976
aVneatly
p977
aVsunset
p978
aVskateboarders
p979
aVmessy
p980
aVcarpet
p981
aVegg
p982
aVhangs
p983
aVmissing
p984
aVrug
p985
aVnose
p986
aVjump
p987
aVingredients
p988
aVnet
p989
aVfoods
p990
aVdeck
p991
aVvanity
p992
aVcarts
p993
aVlies
p994
aVgrowing
p995
aVshopping
p996
aVbuilt
p997
aVbeans
p998
aVbaskets
p999
aVlamb
p1000
aVbull
p1001
aVseats
p1002
aVpie
p1003
aVjetliner
p1004
aVlaid
p1005
aVcolors
p1006
aVcontainers
p1007
aVfootball
p1008
aVkicking
p1009
aVtelephone
p1010
aVclutter
p1011
aVplatter
p1012
aVsnowboarding
p1013
aVoutfit
p1014
aVrusted
p1015
aVbottom
p1016
aVbenches
p1017
aVriders
p1018
aVwires
p1019
aVmound
p1020
aVsee
p1021
aVsides
p1022
aVleg
p1023
aVrailing
p1024
aVsteam
p1025
aVpose
p1026
aVfreezer
p1027
aVlow
p1028
aVcupcake
p1029
aVofficers
p1030
aVpictured
p1031
aVso
p1032
aVlambs
p1033
aVpropeller
p1034
aVfluffy
p1035
aVloaded
p1036
aVparade
p1037
aVtossing
p1038
aVtravels
p1039
aVtouching
p1040
aVgathering
p1041
aVsheets
p1042
aVamong
p1043
aVimages
p1044
aVwashing
p1045
aVsuits
p1046
aVassorted
p1047
aVprepared
p1048
aVcollection
p1049
aVelectronics
p1050
aVmid
p1051
aVtow
p1052
aVpetting
p1053
aVliquid
p1054
aVmotion
p1055
aVturn
p1056
aVvest
p1057
aVmodel
p1058
aVfan
p1059
aVfeet
p1060
aVsandwiches
p1061
aVelectric
p1062
aVleans
p1063
aVhotdog
p1064
aVear
p1065
aVopening
p1066
aVseries
p1067
aVgrapes
p1068
aVbush
p1069
aVhappy
p1070
aVrolling
p1071
aVmeadow
p1072
aVturned
p1073
aVpower
p1074
aVpuppy
p1075
aVaction
p1076
aVpatio
p1077
aVbell
p1078
aVstack
p1079
aVposter
p1080
aVpedestrians
p1081
aVenclosed
p1082
aVthin
p1083
aVgarage
p1084
aVchef
p1085
aVcounters
p1086
aVveggies
p1087
aVfeeds
p1088
aVelectronic
p1089
aVdead
p1090
aVheart
p1091
aVproduce
p1092
aVmonitors
p1093
aVremotes
p1094
aVolives
p1095
aVneon
p1096
aVreflected
p1097
aVlid
p1098
aVgloves
p1099
aVcones
p1100
aVblock
p1101
aVben
p1102
aVhardwood
p1103
aVbeige
p1104
aVstrawberries
p1105
aVtiles
p1106
aVelderly
p1107
aVpotato
p1108
aVtwin
p1109
aVdoll
p1110
aVhugging
p1111
aVcandle
p1112
aVpet
p1113
aVrackets
p1114
aVhomemade
p1115
aVdesert
p1116
aVfrisbees
p1117
aVlines
p1118
aVattempting
p1119
aVsoda
p1120
aVserve
p1121
aVnoodles
p1122
aVname
p1123
aVfeaturing
p1124
aVdirection
p1125
aVheads
p1126
aVleading
p1127
aVshapes
p1128
aVleaving
p1129
aVmaroon
p1130
aVbacon
p1131
aVhold
p1132
aVslicing
p1133
aVpatch
p1134
aVposed
p1135
aVwaits
p1136
aVchain
p1137
aVnewspaper
p1138
aVcafe
p1139
aVclay
p1140
aVseating
p1141
aVpickles
p1142
aVsmile
p1143
aVpitching
p1144
aVhuge
p1145
aVstairs
p1146
aVpracticing
p1147
aVchecking
p1148
aVpier
p1149
aVplaces
p1150
aVchopped
p1151
aVgentleman
p1152
aVflooring
p1153
aVasleep
p1154
aVfoggy
p1155
aVrear
p1156
aVlocomotive
p1157
aVspectators
p1158
aVlocated
p1159
aVbathing
p1160
aVtoothbrushes
p1161
aVcandy
p1162
aVbalcony
p1163
aVfriends
p1164
aVwetsuit
p1165
aVshoulder
p1166
aVselfie
p1167
aVbow
p1168
aVsharing
p1169
aVfast
p1170
aVsailing
p1171
aVpastry
p1172
aVtalks
p1173
aVcoat
p1174
aVleash
p1175
aVcurtains
p1176
aVjockey
p1177
aVpaddle
p1178
aVwaters
p1179
aVhose
p1180
aVgate
p1181
aVlondon
p1182
aVhaired
p1183
aVbrushes
p1184
aVgoes
p1185
aVseems
p1186
aVladies
p1187
aVgoal
p1188
aVsnowboarders
p1189
aVfancy
p1190
aVsiting
p1191
aVsix
p1192
aVsculpture
p1193
aVvegetation
p1194
aVclass
p1195
aVclosed
p1196
aVcanopy
p1197
aVbending
p1198
aVwooded
p1199
aVbasketball
p1200
aVgreens
p1201
aVskiis
p1202
aVsleeps
p1203
aVson
p1204
aVmirrors
p1205
aVsale
p1206
aVblinds
p1207
aVcheckered
p1208
aVpurse
p1209
aVceramic
p1210
aVroadway
p1211
aVpick
p1212
aVcover
p1213
aVgiving
p1214
aVsea
p1215
aVlane
p1216
aVtools
p1217
aVterminal
p1218
aVpacked
p1219
aVblowing
p1220
aVhiding
p1221
aVrural
p1222
aVcontents
p1223
aVcovering
p1224
aVdrawn
p1225
aVantique
p1226
aVadorable
p1227
aVmarina
p1228
aVbreakfast
p1229
aVleather
p1230
aVwheels
p1231
aVdoorway
p1232
aVspeed
p1233
aVstunt
p1234
aVforks
p1235
aVevening
p1236
aVcircle
p1237
aVbride
p1238
aVrope
p1239
aVsnowboards
p1240
aVcrossed
p1241
aVconnected
p1242
aVi
p1243
aVsizes
p1244
aVmushrooms
p1245
aVmuseum
p1246
aVnew
p1247
aVwatering
p1248
aVcalf
p1249
aVchest
p1250
aVsail
p1251
aVtank
p1252
aVneat
p1253
aVif
p1254
aVcovers
p1255
aVfrosting
p1256
aVsideways
p1257
aVdelta
p1258
aVshoe
p1259
aVstructure
p1260
aVstool
p1261
aVlemons
p1262
aVbutton
p1263
aVeggs
p1264
aVlarger
p1265
aVitself
p1266
aVdownhill
p1267
aVgeese
p1268
aVflip
p1269
aVskating
p1270
aVbaked
p1271
aVhats
p1272
aVhang
p1273
aVfaces
p1274
aVfurry
p1275
aVofficer
p1276
aVstream
p1277
aVwagon
p1278
aVamongst
p1279
aVincludes
p1280
aVcurvy
p1281
aVchinese
p1282
aVtea
p1283
aVgoat
p1284
aVobstacle
p1285
aVflown
p1286
aVtablet
p1287
aVworkers
p1288
aVfried
p1289
aVwarning
p1290
aVabandoned
p1291
aVgets
p1292
aVcarries
p1293
aVgolden
p1294
aVarrow
p1295
aVcushion
p1296
aVnicely
p1297
aVlighthouse
p1298
aVtoaster
p1299
aVsplit
p1300
aVnatural
p1301
aVstripped
p1302
aVmoped
p1303
aVbeverage
p1304
aVgroom
p1305
aVpass
p1306
aValso
p1307
aVcrosswalk
p1308
aVwheeled
p1309
aVindividuals
p1310
aVgarbage
p1311
aVposted
p1312
aVaerial
p1313
aVballs
p1314
aVbent
p1315
aVsniffing
p1316
aVtents
p1317
aVdecorations
p1318
aVtape
p1319
aVstuff
p1320
aVmoves
p1321
aVsweater
p1322
aVsteak
p1323
aVengines
p1324
aVdrawers
p1325
aVunique
p1326
aVbalances
p1327
aVcargo
p1328
aVentrance
p1329
aVmessage
p1330
aVtooth
p1331
aVjeans
p1332
aVchefs
p1333
aVlog
p1334
aVmilking
p1335
aVyou
p1336
aVicing
p1337
aVamerican
p1338
aVmobile
p1339
aVkitty
p1340
aVcellular
p1341
aVbooth
p1342
aVherself
p1343
aVcoke
p1344
aVballoons
p1345
aVcontrollers
p1346
aVbowling
p1347
aVarmy
p1348
aVscooters
p1349
aVwindshield
p1350
aVpersonal
p1351
aVglazed
p1352
aVleaned
p1353
aVturning
p1354
aVbay
p1355
aVbasin
p1356
aVsticks
p1357
aVitem
p1358
aVdowntown
p1359
aVn't
p1360
aVpeeking
p1361
aVfall
p1362
aVribbon
p1363
aVmarble
p1364
aVhamburger
p1365
aVnumbers
p1366
aVcupcakes
p1367
aVfans
p1368
aVbin
p1369
aVlaughing
p1370
aVchasing
p1371
aVcabin
p1372
aVcontrols
p1373
aVphotographs
p1374
aVteams
p1375
aVsurrounding
p1376
aVshining
p1377
aVjungle
p1378
aVurban
p1379
aVfreeway
p1380
aVtoothbrush
p1381
aVcycle
p1382
aVsunlight
p1383
aVdepot
p1384
aVdisplaying
p1385
aVdried
p1386
aVsports
p1387
aVstuck
p1388
aVholder
p1389
aVrailway
p1390
aVpersons
p1391
aVwithout
p1392
aVapartment
p1393
aVracing
p1394
aVsoftball
p1395
aVfallen
p1396
aVstory
p1397
aVflight
p1398
aVidentical
p1399
aVsized
p1400
aVrange
p1401
aVrows
p1402
aVhelping
p1403
aVsort
p1404
aVporch
p1405
aVperforms
p1406
aVmotorbike
p1407
aVbbq
p1408
aVmitt
p1409
aVwilderness
p1410
aVorganized
p1411
aVwing
p1412
aVmetallic
p1413
aVchrome
p1414
aVmuch
p1415
aVracquets
p1416
aVbabies
p1417
aVham
p1418
aVshadow
p1419
aVfabric
p1420
aVcooks
p1421
aVdusty
p1422
aVangry
p1423
aVsuch
p1424
aVst
p1425
aValley
p1426
aVaccents
p1427
aVsomeones
p1428
aVmotorcyclists
p1429
aVwaving
p1430
aVchewing
p1431
aVgravel
p1432
aVseagull
p1433
aVfreshly
p1434
aVtravelling
p1435
aVfreight
p1436
aVpickup
p1437
aVsquirrel
p1438
aVfunny
p1439
aVviewing
p1440
aVsignal
p1441
aVt-shirt
p1442
aVnotebook
p1443
aVsteep
p1444
aVsoap
p1445
aVladder
p1446
aVbank
p1447
aVsliding
p1448
aVkiwi
p1449
aViron
p1450
aVstalls
p1451
aVnecktie
p1452
aVtoast
p1453
aVwe
p1454
aVdirections
p1455
aVcondiments
p1456
aVgoggles
p1457
aVsteeple
p1458
aVpeeled
p1459
aVcountertop
p1460
aVheard
p1461
aVlifting
p1462
aVsheet
p1463
aVthese
p1464
aVwaterway
p1465
aVheavy
p1466
aVprepare
p1467
aVarena
p1468
aVahead
p1469
aVtoys
p1470
aVt.v
p1471
aVdishwasher
p1472
aVcatches
p1473
aVbikini
p1474
aVstem
p1475
aVstew
p1476
aVshiny
p1477
aVplacing
p1478
aVdesserts
p1479
aV;
p1480
aVstance
p1481
aVwit
p1482
aVfarm
p1483
aVshaking
p1484
aVentertainment
p1485
aVmicrophone
p1486
aVtire
p1487
aVcuts
p1488
aVterrain
p1489
aV?
p1490
aVha
p1491
aVnavy
p1492
aVlettuce
p1493
aVcomforter
p1494
aVwears
p1495
aVseven
p1496
aVbutter
p1497
aVjumps
p1498
aVtransportation
p1499
aVmat
p1500
aVthing
p1501
aVsuspended
p1502
aVnapkin
p1503
aVspraying
p1504
aVpaw
p1505
aVmom
p1506
aVeither
p1507
aVmixed
p1508
aVbuggy
p1509
aVstretching
p1510
aVgood
p1511
aVaged
p1512
aVindividual
p1513
aVaircraft
p1514
aVforeign
p1515
aVpiled
p1516
aVmural
p1517
aVobjects
p1518
aVgather
p1519
aVpouring
p1520
aVmuddy
p1521
aVmulti
p1522
aVposition
p1523
aVsoft
p1524
aVbookshelf
p1525
aVgranite
p1526
aVtrolley
p1527
aVmotorcyclist
p1528
aVenjoy
p1529
aVstraw
p1530
aVvisible
p1531
aVhospital
p1532
aVupside
p1533
aVbeard
p1534
aVwear
p1535
aVcook
p1536
aVlevel
p1537
aVtuxedo
p1538
aVcases
p1539
aVnursing
p1540
aVfarmer
p1541
aVfactory
p1542
aVconvention
p1543
aVguitar
p1544
aVtiger
p1545
aVshirtless
p1546
aVseparate
p1547
aVdisk
p1548
aVcrust
p1549
aVobserving
p1550
aVrustic
p1551
aVstick
p1552
aVlighting
p1553
aVpasses
p1554
aVcigarette
p1555
aVdump
p1556
aVinstructor
p1557
aVlemon
p1558
aVbacks
p1559
aVduck
p1560
aVmarried
p1561
aVbeverages
p1562
aVcellphones
p1563
aVfishing
p1564
aVtoilets
p1565
aVdinning
p1566
aVraining
p1567
aVhere
p1568
aVunit
p1569
aVdrying
p1570
aVcathedral
p1571
aVservice
p1572
aVsaying
p1573
aVblonde
p1574
aVlife
p1575
aVplayed
p1576
aVtoasted
p1577
aVpavement
p1578
aVfog
p1579
aVcollage
p1580
aVlove
p1581
aVfake
p1582
aVapron
p1583
aV2
p1584
aVbutterfly
p1585
aVhanding
p1586
aVbuffet
p1587
aVs
p1588
aVlounging
p1589
aVtail
p1590
aVdisplays
p1591
aVsection
p1592
aVleaping
p1593
aVpulls
p1594
aVmore
p1595
aVcountryside
p1596
aVmexican
p1597
aVhotdogs
p1598
aVstomach
p1599
aVfeeder
p1600
aVstage
p1601
aVblond
p1602
aVodd
p1603
aVbarely
p1604
aVsignals
p1605
aVsurprised
p1606
aVwildlife
p1607
aVtasting
p1608
aVrelaxes
p1609
aVus
p1610
aVwindowsill
p1611
aVtry
p1612
aVled
p1613
aVtomato
p1614
aVowner
p1615
aVfestival
p1616
aVripe
p1617
aVovercast
p1618
aVpies
p1619
aVmonument
p1620
aVlift
p1621
aVblocking
p1622
aVnuts
p1623
aVlay
p1624
aVmuffin
p1625
aVbreak
p1626
aVlogo
p1627
aVhooked
p1628
aVcop
p1629
aVpeel
p1630
aVdance
p1631
aVdaytime
p1632
aVturns
p1633
aVgun
p1634
aVappear
p1635
aVmarked
p1636
aVtowers
p1637
aVstripes
p1638
aVstill
p1639
aVnow
p1640
aVcare
p1641
aVmostly
p1642
aVslab
p1643
aVsnack
p1644
aVlearning
p1645
aVreturn
p1646
aVpropped
p1647
aVstorage
p1648
aVbanners
p1649
aVcookies
p1650
aVpushed
p1651
aVcyclists
p1652
aVput
p1653
aVstoplight
p1654
aVelse
p1655
aVhallway
p1656
aVrolls
p1657
aVberries
p1658
aVbarbecue
p1659
aVshack
p1660
aVtrough
p1661
aVpaintings
p1662
aVcrosses
p1663
aVcircular
p1664
aVslide
p1665
aVcrate
p1666
aVdriveway
p1667
aVtent
p1668
aVsmoking
p1669
aVpuppies
p1670
aVstar
p1671
aVfoil
p1672
aVcardboard
p1673
aVbusses
p1674
aVjackets
p1675
aVhood
p1676
aVmashed
p1677
aVears
p1678
aVpicking
p1679
aVbelly
p1680
aVbedspread
p1681
aVafternoon
p1682
aVrearview
p1683
aVdigital
p1684
aVcheesy
p1685
aVwere
p1686
aVcurled
p1687
aVoil
p1688
aVblankets
p1689
aVmatching
p1690
aVairline
p1691
aVeye
p1692
aVmales
p1693
aVfish
p1694
aVextended
p1695
aVbackpacks
p1696
aVprint
p1697
aVfaucet
p1698
aVdone
p1699
aVhalves
p1700
aVpoint
p1701
aVsemi
p1702
aVframed
p1703
aVforward
p1704
aVonlookers
p1705
aVapproaches
p1706
aVyarn
p1707
aVprogress
p1708
aVstatues
p1709
aVplaid
p1710
aVsets
p1711
aVbut
p1712
aVtabletop
p1713
aVdresser
p1714
aVsupplies
p1715
aVstares
p1716
aVmagnets
p1717
aVgrasses
p1718
aVburger
p1719
aVtourists
p1720
aVpineapple
p1721
aVfinger
p1722
aVbeef
p1723
aVcraft
p1724
aVapart
p1725
aVcowboy
p1726
aVtowing
p1727
aVmedium
p1728
aVtrio
p1729
aVcoach
p1730
aVfocus
p1731
aVenvironment
p1732
aVport
p1733
aVdriver
p1734
aVblow
p1735
aVrose
p1736
aVcompetition
p1737
aVhipster
p1738
aVdisc
p1739
aVdesign
p1740
aVminiature
p1741
aVscreens
p1742
aVgrabbing
p1743
aVswung
p1744
aVmattress
p1745
aVcookie
p1746
aVdispenser
p1747
aVreach
p1748
aVpatterned
p1749
aVroman
p1750
aVgoats
p1751
aVpedestrian
p1752
aVpigeons
p1753
aVvendor
p1754
aVcanal
p1755
aVstable
p1756
aVinclude
p1757
aVnotes
p1758
aVsmaller
p1759
aVsexy
p1760
aVcupboard
p1761
aVcollar
p1762
aVconsole
p1763
aVlead
p1764
aVhitter
p1765
aVprotesting
p1766
aVdeckered
p1767
aVmidst
p1768
aVtravel
p1769
aVheadboard
p1770
aVspinning
p1771
aVmenu
p1772
aVstrewn
p1773
aVhad
p1774
aVo
p1775
aVdevices
p1776
aVsmelling
p1777
aVtrashcan
p1778
aVchopping
p1779
aVmascot
p1780
aVfollowing
p1781
aVparachute
p1782
aVbesides
p1783
aVstreetlight
p1784
aVawaiting
p1785
aVtortilla
p1786
aVairlines
p1787
aVbarbed
p1788
aVslopes
p1789
aVrust
p1790
aVwatched
p1791
aVherbs
p1792
aVpears
p1793
aVglowing
p1794
aVplat
p1795
aVplan
p1796
aVartistic
p1797
aVstreetlights
p1798
aVbanner
p1799
aVwhole
p1800
aVload
p1801
aVloaf
p1802
aVkissing
p1803
aVtriple
p1804
aVelevated
p1805
aVcrying
p1806
aVformal
p1807
aVspring
p1808
aVgreeting
p1809
aVrepair
p1810
aVtarp
p1811
aVgreat
p1812
aVpaws
p1813
aVdesigns
p1814
aVbeneath
p1815
aVwaffles
p1816
aVrough
p1817
aVpause
p1818
aVjar
p1819
aVshould
p1820
aVcloudless
p1821
aVupon
p1822
aVletters
p1823
aVspots
p1824
aVchained
p1825
aVmachines
p1826
aVconsisting
p1827
aVcalculators
p1828
aVword
p1829
aVavocado
p1830
aVreaches
p1831
aVlogs
p1832
aVbarrier
p1833
aVcereal
p1834
aVgoalie
p1835
aVpackaged
p1836
aVcone
p1837
aVkept
p1838
aVwax
p1839
aVwar
p1840
aVhorseback
p1841
aVcab
p1842
aVcold
p1843
aVhall
p1844
aVdirecting
p1845
aVshowroom
p1846
aVsize
p1847
aVbreed
p1848
aVtusks
p1849
aVcarousel
p1850
aVfriend
p1851
aVprice
p1852
aVonly
p1853
aVsport
p1854
aVtropical
p1855
aVstickers
p1856
aVtaxi
p1857
aVtouch
p1858
aVt
p1859
aVbucket
p1860
aVpodium
p1861
aVwashroom
p1862
aVamount
p1863
aVtrainer
p1864
aVpropellers
p1865
aVtries
p1866
aVworkstation
p1867
aVtowering
p1868
aVbikers
p1869
aVpug
p1870
aVstorm
p1871
aVportrait
p1872
aVheaded
p1873
aVstamp
p1874
aVwings
p1875
aVstep
p1876
aVwithin
p1877
aVnap
p1878
aVwig
p1879
aVcloud
p1880
aVstrapped
p1881
aVarched
p1882
aVpeeling
p1883
aVmulticolored
p1884
aVwading
p1885
aVstump
p1886
aVfilthy
p1887
aVwrapper
p1888
aVexhibit
p1889
aVunfinished
p1890
aVsurfs
p1891
aVspotted
p1892
aVpolka
p1893
aVdrive
p1894
aVshed
p1895
aVtongue
p1896
aVbaking
p1897
aVheading
p1898
aVforce
p1899
aVguests
p1900
aVcalm
p1901
aVfoliage
p1902
aVdot
p1903
aVshaved
p1904
aVputs
p1905
aVmushroom
p1906
aVcans
p1907
aVgrown
p1908
aVhuman
p1909
aVthemed
p1910
aVdim
p1911
aVpine
p1912
aVpathway
p1913
aVtalk
p1914
aVshake
p1915
aVcanada
p1916
aVmonster
p1917
aVheadphones
p1918
aVfirst
p1919
aVspeaking
p1920
aVtractor
p1921
aVinterior
p1922
aVpump
p1923
aVwake
p1924
aVrubbing
p1925
aV4
p1926
aVstrawberry
p1927
aVdeep
p1928
aVstudents
p1929
aVsuburban
p1930
aVfixtures
p1931
aVdiamond
p1932
aVcaboose
p1933
aVengaged
p1934
aVdough
p1935
aVbulls
p1936
aVpara
p1937
aVdancing
p1938
aVfur
p1939
aVbit
p1940
aVornaments
p1941
aVcostumes
p1942
aVpiles
p1943
aVjumbo
p1944
aVnecks
p1945
aVskiies
p1946
aVcrow
p1947
aVtunnel
p1948
aVhorns
p1949
aVtidy
p1950
aVpuddle
p1951
aValmost
p1952
aVstored
p1953
aVpin
p1954
aVcircus
p1955
aVpig
p1956
aVmozzarella
p1957
aVfigure
p1958
aVmeats
p1959
aVmouths
p1960
aVsalsa
p1961
aVwriting
p1962
aVshadows
p1963
aVdouble-decker
p1964
aVgazelle
p1965
aVram
p1966
aVherding
p1967
aVstopping
p1968
aVteenager
p1969
aVbats
p1970
aVwhen
p1971
aVstacks
p1972
aVleads
p1973
aVartwork
p1974
aVposts
p1975
aVhairy
p1976
aVgroups
p1977
aViphone
p1978
aVtoday
p1979
aVpickle
p1980
aVfloral
p1981
aVbranches
p1982
aVfurnished
p1983
aVtrunks
p1984
aVeagle
p1985
aVgives
p1986
aVhut
p1987
aVcards
p1988
aVspaces
p1989
aVwritten
p1990
aVlighted
p1991
aVcomb
p1992
aVcome
p1993
aVquiet
p1994
aVpilot
p1995
aVshops
p1996
aVmacaroni
p1997
aS'SENTENCE_START'
p1998
aS'SENTENCE_END'
p1999
aS'UNKNOWN_TOKEN'
p2000
a.(dp0
Vraining
p1
I1566
sVhats
p2
I1271
sVyellow
p3
I122
sVfour
p4
I235
sVwoods
p5
I536
sVasian
p6
I675
sVhanging
p7
I240
sVtrolley
p8
I1526
sVfeeding
p9
I558
sVchinese
p10
I1281
sVpug
p11
I1869
sVbike
p12
I224
sVunder
p13
I131
sVdeckered
p14
I1766
sVblanket
p15
I495
sVvase
p16
I221
sVcloseup
p17
I969
sVmessy
p18
I979
sVfireplace
p19
I706
sVschool
p20
I658
sVbaking
p21
I1896
sVmotorcyclist
p22
I1527
sVwooden
p23
I108
sVheading
p24
I1897
sVclothes
p25
I654
sVenjoy
p26
I1528
sVbicycle
p27
I361
sVphones
p28
I564
sVrailing
p29
I1023
sVbacon
p30
I1130
sVfrosted
p31
I901
sVchef
p32
I1084
sVtalks
p33
I1172
sVstreet
p34
I23
sVmachines
p35
I1825
sVshining
p36
I1376
sVblue
p37
I54
sVcooking
p38
I635
sVbikini
p39
I1473
sVlights
p40
I308
sVabove
p41
I247
sVcars
p42
I196
sVnew
p43
I1246
sVnet
p44
I988
sVconsisting
p45
I1826
sVcounters
p46
I1085
sVsinks
p47
I970
sVmen
p48
I83
sVhere
p49
I1567
sVherd
p50
I239
sVpath
p51
I508
sVstares
p52
I1715
sVcardboard
p53
I1672
sVmozzarella
p54
I1956
sVdry
p55
I603
sVkids
p56
I436
sVluggage
p57
I222
sVrests
p58
I889
sVitems
p59
I325
sVleaves
p60
I515
sVapproaches
p61
I1705
sVsmoke
p62
I971
sVcalculators
p63
I1827
sVmilitary
p64
I711
sVapart
p65
I1724
sVgolden
p66
I1293
sVslices
p67
I699
sVstraw
p68
I1529
sVsliced
p69
I485
sVvisible
p70
I1530
sVbusses
p71
I1673
sVguests
p72
I1899
sVjackets
p73
I1674
sVlandscape
p74
I930
sVswings
p75
I818
sVarmy
p76
I1347
sVsweater
p77
I1321
sVwatering
p78
I1247
sVarms
p79
I655
sVoverhead
p80
I845
sVcalm
p81
I1900
sVtype
p82
I931
sVcalf
p83
I1248
sVphone
p84
I124
sVadult
p85
I463
sVhole
p86
I828
sVhold
p87
I1131
sVblocking
p88
I1621
sVword
p89
I1828
sVroom
p90
I41
sVwork
p91
I618
sVroof
p92
I890
sVitself
p93
I1265
sVfoliage
p94
I1901
sVcans
p95
I1906
sVdecorative
p96
I902
sVwashroom
p97
I1861
sVorganized
p98
I1410
sVfoods
p99
I989
sVveggies
p100
I1086
sVjetliner
p101
I1003
sVend
p102
I545
sVthing
p103
I1500
sVbunk
p104
I819
sVdrying
p105
I1569
sVnuts
p106
I1622
sVmachine
p107
I958
sVhow
p108
I911
sVhot
p109
I267
sVboats
p110
I327
sVgate
p111
I1180
sVbeach
p112
I72
sVpizza
p113
I73
sVmouths
p114
I1959
sVladder
p115
I1445
sVafter
p116
I801
sVjumping
p117
I343
sVlay
p118
I1623
sVsalsa
p119
I1960
sVlap
p120
I475
sVtypes
p121
I493
sVgreen
p122
I59
sVjungle
p123
I1377
sVwing
p124
I1411
sVwind
p125
I866
sVwine
p126
I254
sVoffice
p127
I524
sVdeck
p128
I990
sVmuffin
p129
I1624
sVover
p130
I106
sVlondon
p131
I1181
sVoven
p132
I301
sVkeyboard
p133
I230
sVwindshield
p134
I1349
sVbefore
p135
I762
sVpersonal
p136
I1350
sVbackpack
p137
I912
sVavocado
p138
I1829
sV,
p139
I14
sVwriting
p140
I1961
sVlooks
p141
I298
sVbelly
p142
I1679
sVthem
p143
I294
sVwooded
p144
I1198
sVslicing
p145
I1132
sVgiraffe
p146
I125
sVthey
p147
I671
sVglazed
p148
I1351
sVsilver
p149
I458
sVbank
p150
I1446
sVbread
p151
I460
sVshadows
p152
I1962
sVrocky
p153
I601
sVpotatoes
p154
I903
sVrocks
p155
I501
sVgood
p156
I1510
sVleaned
p157
I1352
sVarrow
p158
I1294
sVeach
p159
I135
sVfeeds
p160
I1087
sVside
p161
I68
sVlogs
p162
I1831
sVseries
p163
I1066
sVtrain
p164
I38
sVbowls
p165
I510
sVmagnets
p166
I1716
sVnavy
p167
I1491
sVcathedral
p168
I1570
sVflock
p169
I802
sVdouble-decker
p170
I1963
sVenclosure
p171
I364
sVdriving
p172
I198
sVhaired
p173
I1182
sVhooked
p174
I1627
sVlaid
p175
I1004
sVsliding
p176
I1447
sVturning
p177
I1353
sVsoftball
p178
I1394
sVrail
p179
I672
sVformation
p180
I820
sVgrapes
p181
I1067
sVswimming
p182
I617
sVshelves
p183
I750
sVgrasses
p184
I1717
sVfestival
p185
I1615
sVsoda
p186
I1119
sVonto
p187
I455
sVchopped
p188
I1150
sVindustrial
p189
I896
sVfeatures
p190
I891
sVgazelle
p191
I1964
sVlettuce
p192
I1492
sVspinning
p193
I1770
sVfloors
p194
I739
sVanother
p195
I176
sVcomforter
p196
I1493
sVscissors
p197
I371
sVtusks
p198
I1848
sVelectronic
p199
I1088
sVhood
p200
I1675
sVtoy
p201
I489
sVhydrant
p202
I171
sVservice
p203
I1571
sVtop
p204
I28
sVgirls
p205
I424
sVtow
p206
I1051
sVlegs
p207
I775
sVdogs
p208
I300
sVkiwi
p209
I1448
sVcurtains
p210
I1175
sVceiling
p211
I741
sVcarousel
p212
I1849
sVbrushes
p213
I1183
sVserve
p214
I1120
sVcereal
p215
I1833
sVboarding
p216
I615
sVdistance
p217
I790
sVsurrounding
p218
I1375
sVtree
p219
I129
sVseated
p220
I737
sVshower
p221
I338
sVspeaking
p222
I1919
sViron
p223
I1449
sVbeard
p224
I1533
sVbridge
p225
I516
sVgiraffes
p226
I212
sVmodern
p227
I623
sVglass
p228
I211
sVtalking
p229
I334
sVstalls
p230
I1450
sVseen
p231
I399
sVcontents
p232
I1222
sVnecktie
p233
I1451
sVperson
p234
I32
sVsnow
p235
I75
sVmetallic
p236
I1412
sVchest
p237
I1249
sVdoors
p238
I959
sVrides
p239
I427
sVrider
p240
I659
sVzebras
p241
I216
sVobject
p242
I960
sVmashed
p243
I1676
sVmouth
p244
I372
sVmetal
p245
I317
sVdog
p246
I39
sVfreeway
p247
I1379
sVpineapple
p248
I1720
sVdot
p249
I1902
sVsaying
p250
I1572
sVcrust
p251
I1548
sVcolors
p252
I1005
sVtoast
p253
I1452
sVbusy
p254
I381
sVjust
p255
I583
sVmenu
p256
I1771
sVbush
p257
I1068
sVrice
p258
I712
sVgoalie
p259
I1834
sVwearing
p260
I100
sVdo
p261
I972
sVtiles
p262
I1105
sVsunglasses
p263
I628
sVcolorful
p264
I315
sVwatch
p265
I546
sVtiled
p266
I582
sVcushion
p267
I1295
sVwedding
p268
I742
sVruns
p269
I973
sVbar
p270
I764
sVgreens
p271
I1200
sVcovering
p272
I1223
sVnicely
p273
I1296
sVboarder
p274
I825
sVpatch
p275
I1133
sVbag
p276
I396
sVgrilled
p277
I892
sVsteak
p278
I1322
sVsteam
p279
I1024
sVears
p280
I1677
sVheaded
p281
I1872
sVfluffy
p282
I1034
sVcattle
p283
I619
sVnoodles
p284
I1121
sVmidst
p285
I1767
sVlots
p286
I270
sVaway
p287
I837
sVsail
p288
I1250
sVgentleman
p289
I1151
sVshaved
p290
I1903
sVwetsuit
p291
I1164
sVmug
p292
I680
sVfinger
p293
I1721
sVdrawn
p294
I1224
sVwe
p295
I1453
sVwears
p296
I1494
sVwere
p297
I1685
sVpackaged
p298
I1835
sVtoothbrush
p299
I1380
sVcut
p300
I295
sVwear
p301
I1534
sVpicking
p302
I1678
sVholds
p303
I277
sVkitchen
p304
I51
sVcop
p305
I1628
sVcow
p306
I225
sVcountry
p307
I664
sVagainst
p308
I287
sVplayers
p309
I397
sVgames
p310
I821
sVfaces
p311
I1273
sVtowels
p312
I853
sVloaded
p313
I1035
sVblonde
p314
I1573
sVgrazing
p315
I217
sVlighthouse
p316
I1297
sVengines
p317
I1323
sVchrome
p318
I1413
sVthree
p319
I79
sVbeen
p320
I534
sV.
p321
I1
sVbeer
p322
I589
sVmuch
p323
I1414
sVstadium
p324
I913
sVbasin
p325
I1355
sVcontainers
p326
I1006
sVteenager
p327
I1968
sVlife
p328
I1574
sVmushroom
p329
I1905
sVskiis
p330
I1201
sVracquets
p331
I1415
sVlift
p332
I1620
sVchild
p333
I149
sVcatch
p334
I535
sVtank
p335
I1251
sVair
p336
I105
sVnear
p337
I37
sVneat
p338
I1252
sVstopping
p339
I1967
sVcab
p340
I1841
sVseven
p341
I1495
sVplayed
p342
I1575
sVis
p343
I8
sVit
p344
I25
sVplayer
p345
I92
sVcone
p346
I1836
sVin
p347
I5
sVmouse
p348
I376
sVif
p349
I1253
sVgrown
p350
I1907
sVcontaining
p351
I590
sVbottles
p352
I530
sVminiature
p353
I1740
sVthings
p354
I826
sVmake
p355
I846
sVtoaster
p356
I1298
sVamount
p357
I1862
sVbeside
p358
I237
sVsplit
p359
I1299
sVbabies
p360
I1416
sVvegetable
p361
I933
sVplates
p362
I291
sVseveral
p363
I103
sVshowing
p364
I421
sVwheel
p365
I974
sVtops
p366
I827
sVrain
p367
I499
sVhand
p368
I165
sVkid
p369
I425
sVbutter
p370
I1496
sVkept
p371
I1837
sVcondiments
p372
I1455
sVocean
p373
I186
sVbedspread
p374
I1680
sVmother
p375
I591
sVthe
p376
I4
sVleft
p377
I724
sVtrainer
p378
I1863
sVsleeps
p379
I1202
sVphoto
p380
I177
sVlaptop
p381
I96
sVgoggles
p382
I1456
sVhuman
p383
I1908
sVposes
p384
I751
sVham
p385
I1417
sVflooring
p386
I1152
sVdining
p387
I428
sVfurry
p388
I1274
sVhad
p389
I1773
sVhay
p390
I665
sVboard
p391
I117
sVbasketball
p392
I1199
sVhas
p393
I55
sVhat
p394
I314
sVposed
p395
I1134
sVboxes
p396
I822
sVbackground
p397
I152
sVshadow
p398
I1418
sVunique
p399
I1325
sVvanity
p400
I991
sVshoulder
p401
I1165
sVperforming
p402
I847
sVpavement
p403
I1577
sVsteps
p404
I914
sVofficer
p405
I1275
sVnight
p406
I311
sVsignal
p407
I1440
sVmeats
p408
I1958
sVantique
p409
I1225
sVbutterfly
p410
I1584
sVright
p411
I733
sVpetting
p412
I1052
sVcrowd
p413
I283
sVpeople
p414
I18
sVdead
p415
I1089
sVfor
p416
I81
sVbottom
p417
I1015
sVcarts
p418
I992
sVice
p419
I947
sVfog
p420
I1578
sVunit
p421
I1568
sVskateboarder
p422
I345
sVadorable
p423
I1226
sVchristmas
p424
I771
sVpeel
p425
I1629
sVpose
p426
I1025
sVlamps
p427
I905
sVpost
p428
I511
sVbenches
p429
I1016
sVcowboy
p430
I1725
sVo
p431
I1774
sVdinner
p432
I681
sVafternoon
p433
I1681
sVhospital
p434
I1531
sVbath
p435
I517
sVlogo
p436
I1626
sVselfie
p437
I1166
sVrearview
p438
I1682
sVson
p439
I1203
sVdown
p440
I31
sVlies
p441
I993
sVbats
p442
I1969
sVold
p443
I159
sVparade
p444
I1036
sVfabric
p445
I1419
sVwaits
p446
I1135
sVflying
p447
I74
sVsunlight
p448
I1382
sVcenter
p449
I574
sVstuck
p450
I1387
sVtowing
p451
I1726
sVway
p452
I386
sVwax
p453
I1838
sVwas
p454
I920
sVwar
p455
I1839
sVhappy
p456
I1069
sVfork
p457
I405
sVhead
p458
I238
sVmedium
p459
I1727
sVsnowy
p460
I233
sVlanding
p461
I934
sVelderly
p462
I1106
sVinside
p463
I172
sVattached
p464
I431
sVdevices
p465
I1775
sVlays
p466
I684
sVbrightly
p467
I906
sVtrio
p468
I1728
sVsticks
p469
I1356
sVumpire
p470
I879
sVcovers
p471
I1254
sVdrive
p472
I1893
sV''
p473
I500
sVfashioned
p474
I893
sVship
p475
I691
sVno
p476
I490
sVtossing
p477
I1037
sVtopped
p478
I272
sVsetting
p479
I547
sVholding
p480
I27
sVpapers
p481
I727
sVtie
p482
I223
sVdepot
p483
I1383
sVroll
p484
I915
sVpicture
p485
I115
sV's
p486
I130
sVfootball
p487
I1007
sVsmelling
p488
I1776
sVrolling
p489
I1070
sVpizzas
p490
I584
sVpotato
p491
I1107
sVtogether
p492
I141
sVbeds
p493
I715
sVpurple
p494
I496
sVrough
p495
I1816
sVtime
p496
I646
sVbanners
p497
I1648
sVstacks
p498
I1971
sVslope
p499
I232
sVcoach
p500
I1729
sVchain
p501
I1136
sVthemed
p502
I1909
sVdance
p503
I1630
sVskis
p504
I169
sVfocus
p505
I1730
sVhorseback
p506
I1840
sVleads
p507
I1972
sVskate
p508
I227
sVmicrowave
p509
I365
sVskiing
p510
I258
sVtrashcan
p511
I1777
sVchair
p512
I164
sVdisplaying
p513
I1384
sVmilk
p514
I935
sVrow
p515
I402
sVenvironment
p516
I1731
sVbicycles
p517
I596
sVbrown
p518
I84
sVicing
p519
I1336
sVkitten
p520
I673
sVcook
p521
I1535
sVdim
p522
I1910
sVcooks
p523
I1420
sVclouds
p524
I743
sVcouches
p525
I592
sVlevel
p526
I1536
sVturns
p527
I1632
sVposts
p528
I1974
sVgun
p529
I1633
sVcloudy
p530
I491
sVtravels
p531
I1038
sVitem
p532
I1357
sVsubway
p533
I867
sVteam
p534
I713
sVsidewalk
p535
I190
sVround
p536
I765
sVsays
p537
I948
sVmeadow
p538
I1071
sVcollage
p539
I1579
sVsign
p540
I65
sVchopping
p541
I1778
sVdried
p542
I1385
sVeating
p543
I95
sVport
p544
I1732
sVdrinks
p545
I548
sVcargo
p546
I1327
sVstands
p547
I175
sVuniform
p548
I481
sVtarmac
p549
I518
sVgoes
p550
I1184
sVpine
p551
I1911
sVsupplies
p552
I1714
sVfalling
p553
I961
sVcurled
p554
I1686
sVfilled
p555
I116
sVhairy
p556
I1975
sVtransportation
p557
I1498
sVpeeled
p558
I1458
sVfrench
p559
I700
sVcostumes
p560
I1941
sVwater
p561
I52
sVpause
p562
I1817
sVbaseball
p563
I50
sVgroups
p564
I1976
sValone
p565
I868
sVfrosting
p566
I1255
sVappears
p567
I975
sVbox
p568
I309
sVboy
p569
I70
sVdusty
p570
I1421
sVbow
p571
I1167
sVpillow
p572
I782
sVlove
p573
I1580
sVtuxedo
p574
I1537
sVmarked
p575
I1635
sVsnowboard
p576
I420
sVfake
p577
I1581
sVmarket
p578
I674
sVworking
p579
I776
sVangry
p580
I1422
sVsports
p581
I1386
sVgoing
p582
I296
sViphone
p583
I1977
sS'SENTENCE_START'
p584
I1997
sVtoday
p585
I1978
sV``
p586
I477
sVsharing
p587
I1168
sVcountertop
p588
I1459
sVtowers
p589
I1636
sVchocolate
p590
I440
sVdowntown
p591
I1358
sVcases
p592
I1538
sVriders
p593
I1017
sVmascot
p594
I1779
sVfly
p595
I445
sVcar
p596
I123
sVcap
p597
I803
sVcat
p598
I48
sVdecker
p599
I297
sVsoup
p600
I676
sVcan
p601
I374
sVgrowing
p602
I994
sVmaking
p603
I432
sVpickle
p604
I1979
sVnumbers
p605
I1365
sVheart
p606
I1090
sVgrassy
p607
I167
sVstream
p608
I1276
sVmirrors
p609
I1204
sVparachute
p610
I1781
sVheard
p611
I1460
sVposing
p612
I303
sVclothing
p613
I838
sVpink
p614
I304
sVwinter
p615
I869
sVget
p616
I849
sVfreezer
p617
I1026
sVelephant
p618
I133
sVtile
p619
I641
sVpathway
p620
I1912
sVmat
p621
I1499
sVbirthday
p622
I434
sVvases
p623
I525
sVfloral
p624
I1980
sVsuch
p625
I1423
sVguys
p626
I701
sVlifting
p627
I1461
sVman
p628
I9
sVclose-up
p629
I936
sVsurfing
p630
I459
sVnatural
p631
I1300
sVneck
p632
I702
sVliquid
p633
I1053
sVcandles
p634
I651
sVst
p635
I1424
sVtruck
p636
I119
sVbasket
p637
I531
sVtall
p638
I204
sVpulled
p639
I578
sVtravel
p640
I1768
sVtalk
p641
I1913
sVcute
p642
I506
sVserving
p643
I716
sVshoes
p644
I725
sVfurnished
p645
I1982
sVdisplayed
p646
I620
sVcourse
p647
I916
sVpitch
p648
I484
sVcold
p649
I1842
sVstill
p650
I1638
sVbirds
p651
I357
sVgroup
p652
I29
sVmonitor
p653
I486
sVplatform
p654
I474
sVwindow
p655
I114
sVfarmer
p656
I1540
sVapron
p657
I1582
sVunderneath
p658
I449
sVlunch
p659
I811
sVtouching
p660
I1039
sVhalf
p661
I363
sVnot
p662
I689
sVbalances
p663
I1326
sVketchup
p664
I870
sVwagon
p665
I1277
sVname
p666
I1122
sVscooters
p667
I1348
sVbowling
p668
I1346
sVsquare
p669
I666
sVelephants
p670
I207
sVdirecting
p671
I1844
sVcatching
p672
I744
sVzebra
p673
I154
sVgirl
p674
I90
sVmonitors
p675
I1092
sVcanada
p676
I1915
sVliving
p677
I112
sVshown
p678
I451
sVcontainer
p679
I777
sVopened
p680
I921
sVspace
p681
I880
sVfactory
p682
I1541
sVrolls
p683
I1656
sVlooking
p684
I64
sVshowroom
p685
I1845
sVshows
p686
I565
sVeagle
p687
I1984
sVmonster
p688
I1916
sVsideways
p689
I1256
sVcart
p690
I580
sVrows
p691
I1401
sVbesides
p692
I1782
sVmarina
p693
I1227
sVcare
p694
I1640
sVtortilla
p695
I1785
sVheadphones
p696
I1917
sVmotion
p697
I1054
sVturn
p698
I1055
sVplace
p699
I594
sVpepperoni
p700
I812
sVswing
p701
I384
sVview
p702
I197
sVstar
p703
I1670
sVfirst
p704
I1918
sVcheese
p705
I370
sVtennis
p706
I40
sVwaves
p707
I479
sVone
p708
I107
sVlong
p709
I281
sVsuspended
p710
I1501
sVpotted
p711
I798
sVopen
p712
I136
sVcheesy
p713
I1684
sVsize
p714
I1846
sVsheep
p715
I184
sVcity
p716
I88
sVlittle
p717
I121
sVsheet
p718
I1462
sVbite
p719
I778
sVbreed
p720
I1847
sVplastic
p721
I441
sV2
p722
I1583
sVsteep
p723
I1443
sVstuffed
p724
I244
sVconvention
p725
I1542
sVstreetlight
p726
I1783
sVwhite
p727
I20
sVpuddle
p728
I1950
sVfriend
p729
I1850
sVgives
p730
I1985
sVeyes
p731
I848
sVmostly
p732
I1641
sVthat
p733
I26
sVhut
p734
I1986
sVflowers
p735
I192
sVholder
p736
I1388
sVwide
p737
I949
sVtelevision
p738
I292
sVsailing
p739
I1170
sVapples
p740
I602
sVfruits
p741
I502
sVcards
p742
I1987
sVtractor
p743
I1920
sVand
p744
I7
sVgathering
p745
I1040
sVturned
p746
I1072
sValley
p747
I1425
sVpastry
p748
I1171
sVbreakfast
p749
I1228
sVslab
p750
I1642
sVzoo
p751
I404
sVequipment
p752
I840
sVtake
p753
I598
sVinterior
p754
I1921
sVupside
p755
I1532
sVsurf
p756
I335
sVhanding
p757
I1585
sVmultiple
p758
I559
sVtrack
p759
I288
sVprice
p760
I1851
sVneatly
p761
I976
sVbuffet
p762
I1586
sVsheets
p763
I1041
sVpair
p764
I312
sVlawn
p765
I611
sVboys
p766
I543
sVnapkin
p767
I1502
sVsale
p768
I1205
sVtooth
p769
I1330
sVsunset
p770
I977
sVprofessional
p771
I804
sVshop
p772
I624
sVwalking
p773
I53
sVshot
p774
I585
sVshow
p775
I937
sVbright
p776
I553
sVspaces
p777
I1988
sVshoe
p778
I1258
sVcorner
p779
I268
sVground
p780
I214
sVsnack
p781
I1643
sVbehind
p782
I170
sVeither
p783
I1506
sVonly
p784
I1852
sVwood
p785
I321
sVblack
p786
I35
sVblinds
p787
I1206
sVlighted
p788
I1990
sVsuitcases
p789
I685
sVspraying
p790
I1503
sVremotes
p791
I1093
sVawaiting
p792
I1784
sVleather
p793
I1229
sVacross
p794
I241
sVdough
p795
I1934
sVtent
p796
I1667
sVwhere
p797
I647
sVpicnic
p798
I707
sVseat
p799
I586
sVasleep
p800
I1153
sVparking
p801
I234
sVsport
p802
I1853
sVoutside
p803
I118
sVbetween
p804
I482
sVreading
p805
I540
sVsurfboards
p806
I667
sVcheckered
p807
I1207
sVscreen
p808
I339
sVguitar
p809
I1543
sVjets
p810
I734
sVtub
p811
I446
sVcomb
p812
I1991
sVcome
p813
I1992
sVmany
p814
I120
sVquiet
p815
I1993
sVrestroom
p816
I766
sVtour
p817
I938
sVwheels
p818
I1230
sVnearby
p819
I881
sVamong
p820
I1042
sVpassenger
p821
I350
sVcolor
p822
I871
sVpot
p823
I576
sVjeans
p824
I1331
sVpole
p825
I289
sVlearning
p826
I1644
sVgeese
p827
I1267
sVboat
p828
I155
sVolives
p829
I1094
sVteddy
p830
I147
sVairliner
p831
I962
sVairlines
p832
I1786
sVtropical
p833
I1854
sVfeaturing
p834
I1123
sVengine
p835
I660
sVdirection
p836
I1124
sVshopping
p837
I995
sVlaptops
p838
I625
sVphotos
p839
I686
sVwake
p840
I1923
sVfoggy
p841
I1154
sVskiers
p842
I452
sVpilot
p843
I1994
sVcase
p844
I795
sVstacked
p845
I939
sVthese
p846
I1463
sVn't
p847
I1359
sVnewspaper
p848
I1137
sVmound
p849
I1019
sVvest
p850
I1056
sVrubbing
p851
I1924
sVpurse
p852
I1208
sVcoffee
p853
I263
sVsleeping
p854
I341
sVmiddle
p855
I218
sVsomeone
p856
I378
sVclutter
p857
I1010
sVwaterway
p858
I1464
sVstickers
p859
I1855
sVfloating
p860
I604
sVbags
p861
I791
sVdifferent
p862
I173
sVpaw
p863
I1504
sVbowl
p864
I153
sVs
p865
I1587
sVsame
p866
I740
sVmacaroni
p867
I1996
sVpan
p868
I453
sVbarbed
p869
I1787
sVwires
p870
I1018
sVdriver
p871
I1733
sVdrives
p872
I823
sVpersons
p873
I1390
sVrunning
p874
I313
sVfruit
p875
I273
sVadvertisement
p876
I829
sVcupcake
p877
I1028
sVcanopy
p878
I1196
sVbreak
p879
I1625
sVfloor
p880
I202
sVwithout
p881
I1391
sVbottle
p882
I320
sVtrains
p883
I563
sVmodel
p884
I1057
sVtaxi
p885
I1856
sVoutdoor
p886
I468
sVbeing
p887
I194
sVwhen
p888
I1970
sVneon
p889
I1095
sVrest
p890
I799
sVtouch
p891
I1857
sVspeed
p892
I1232
sVkneeling
p893
I661
sVblow
p894
I1734
sVsnowboarder
p895
I717
sVrose
p896
I1735
sVseems
p897
I1185
sVdesktop
p898
I692
sVpile
p899
I406
sV4
p900
I1925
sVheadboard
p901
I1769
sVskies
p902
I917
sVskier
p903
I391
sVpropped
p904
I1646
sVaround
p905
I101
sVdigital
p906
I1683
sVfridge
p907
I708
sVdark
p908
I392
sVtraffic
p909
I160
sVmom
p910
I1505
sVstunt
p911
I1233
sVrailroad
p912
I677
sVlady
p913
I276
sVrear
p914
I1155
sVmeat
p915
I344
sVtowel
p916
I630
sVtwin
p917
I1108
sVfacing
p918
I813
sVnose
p919
I985
sVclay
p920
I1139
sVserved
p921
I940
sVtower
p922
I205
sVseating
p923
I1140
sVdoll
p924
I1109
sVcompetition
p925
I1736
sVimages
p926
I1043
sVpasture
p927
I541
sVpickles
p928
I1141
sVmatching
p929
I1689
sVdaytime
p930
I1631
sVslice
p931
I450
sVstrewn
p932
I1772
sVshirtless
p933
I1545
sVhipster
p934
I1737
sVforks
p935
I1234
sVknife
p936
I426
sVbusiness
p937
I882
sVchefs
p938
I1332
sVbroken
p939
I894
sVthrow
p940
I621
sVon
p941
I2
sVstone
p942
I443
sVisland
p943
I767
sVmeal
p944
I438
sVstand
p945
I201
sVmixed
p946
I1507
sVor
p947
I550
sVroad
p948
I77
sVladies
p949
I1186
sVimage
p950
I251
sVmoped
p951
I1302
sVracquet
p952
I379
sVlog
p953
I1333
sVher
p954
I82
sVarea
p955
I111
sVthere
p956
I69
sVsides
p957
I1021
sVcats
p958
I622
sVlow
p959
I1027
sVlot
p960
I191
sVslopes
p961
I1788
sVbuggy
p962
I1508
sVpitcher
p963
I755
sVamongst
p964
I1278
sVcabinet
p965
I950
sVcycle
p966
I1381
sVwalkway
p967
I895
sVtrying
p968
I526
sVwith
p969
I6
sVarranged
p970
I941
sVbucket
p971
I1859
sVstrawberry
p972
I1926
sVpeeking
p973
I1360
sVdirty
p974
I779
sVsuitcase
p975
I447
sVgrass
p976
I57
sVrust
p977
I1789
sVtoilet
p978
I89
sVaccents
p979
I1426
sVwatches
p980
I636
sVan
p981
I12
sVas
p982
I127
sVat
p983
I15
sVwalks
p984
I373
sVwatched
p985
I1790
sVmoves
p986
I1320
sVcream
p987
I668
sVjacket
p988
I444
sVcabinets
p989
I369
sVstorage
p990
I1647
sVfield
p991
I30
sVsomeones
p992
I1427
sVmilking
p993
I1334
sVyou
p994
I1335
sVpuppy
p995
I1074
sVmotorcyclists
p996
I1428
sVpolar
p997
I693
sVbeef
p998
I1722
sVpillows
p999
I606
sVseparate
p1000
I1546
sVstudents
p1001
I1928
sVteeth
p1002
I514
sVincludes
p1003
I1279
sVwaving
p1004
I1429
sVherbs
p1005
I1791
sVpodium
p1006
I1860
sVdecorated
p1007
I433
sVpool
p1008
I806
sVbuilding
p1009
I78
sVtiger
p1010
I1544
sVremote
p1011
I333
sVtricks
p1012
I537
sVgroom
p1013
I1304
sVcurvy
p1014
I1280
sVplatter
p1015
I1011
sVall
p1016
I347
sVpointing
p1017
I883
sVsuburban
p1018
I1929
sVceramic
p1019
I1209
sVdisc
p1020
I1738
sVdish
p1021
I631
sVfixtures
p1022
I1930
sVdisk
p1023
I1547
sVchildren
p1024
I305
sVcarpet
p1025
I980
sVapartment
p1026
I1392
sVtv
p1027
I245
sVto
p1028
I10
sVtail
p1029
I1589
sVchewing
p1030
I1430
sVsmile
p1031
I1142
sVenjoying
p1032
I642
sVroadway
p1033
I1210
sVwoman
p1034
I21
sVsitting
p1035
I11
sVvery
p1036
I140
sVfan
p1037
I1058
sVfall
p1038
I1361
sVwashing
p1039
I1044
sVlaying
p1040
I87
sVlarge
p1041
I24
sVsand
p1042
I478
sVsmall
p1043
I36
sVlocomotive
p1044
I1156
sVcookies
p1045
I1649
sVfence
p1046
I185
sVtea
p1047
I1282
sVstreets
p1048
I841
sVpast
p1049
I411
sVburger
p1050
I1718
sVdesign
p1051
I1739
sVdisplays
p1052
I1590
sVpass
p1053
I1305
sVribbon
p1054
I1362
sVtrick
p1055
I331
sVwhat
p1056
I907
sVbarrier
p1057
I1832
sVclock
p1058
I99
sVsun
p1059
I442
sVsection
p1060
I1591
sVstool
p1061
I1260
sVracing
p1062
I1393
sVpublic
p1063
I532
sVfull
p1064
I236
sVleaping
p1065
I1592
sVsurfer
p1066
I454
sVtracks
p1067
I229
sVtrunk
p1068
I554
sVdirections
p1069
I1454
sVobserving
p1070
I1549
sVshops
p1071
I1995
sVarena
p1072
I1467
sVcolored
p1073
I387
sVahead
p1074
I1468
sVstretching
p1075
I1509
sVdrawers
p1076
I1324
sVairport
p1077
I265
sVpick
p1078
I1211
sVaction
p1079
I1075
sVnarrow
p1080
I792
sVsticking
p1081
I745
sVfamily
p1082
I527
sVbuses
p1083
I377
sVtransit
p1084
I904
sVscreens
p1085
I1741
sVappliances
p1086
I607
sVtoys
p1087
I1469
sVpulls
p1088
I1593
sVeye
p1089
I1691
sVtakes
p1090
I718
sVdonuts
p1091
I560
sVcontains
p1092
I884
sVtwo
p1093
I13
sVpears
p1094
I1792
sVrustic
p1095
I1550
sVpitching
p1096
I1143
sVtaken
p1097
I842
sVmore
p1098
I1594
sVhorses
p1099
I179
sVflat
p1100
I632
sVdiamond
p1101
I1931
sVdoor
p1102
I323
sVcaboose
p1103
I1932
sVgrabbing
p1104
I1742
sVengaged
p1105
I1933
sVpropellers
p1106
I1864
sVstable
p1107
I1755
sVfaucet
p1108
I1697
sVtelephone
p1109
I1009
sVflag
p1110
I746
sVstick
p1111
I1551
sVlemons
p1112
I1261
sVmounted
p1113
I566
sVtown
p1114
I587
sVgrill
p1115
I756
sVinclude
p1116
I1756
sVseagull
p1117
I1432
sVmale
p1118
I393
sVmarble
p1119
I1363
sVbeautiful
p1120
I470
sVhamburger
p1121
I1364
sVpushed
p1122
I1650
sVurinals
p1123
I856
sVcows
p1124
I178
sVpond
p1125
I857
sVairplane
p1126
I189
sVswung
p1127
I1743
sVdress
p1128
I612
sVhuge
p1129
I1144
sVt.v
p1130
I1470
sVcourt
p1131
I163
sVgoal
p1132
I1187
sVglowing
p1133
I1793
sVfreshly
p1134
I1433
sVgoat
p1135
I1283
sVplant
p1136
I549
sVsandwich
p1137
I168
sVhelmet
p1138
I629
sVcountryside
p1139
I1595
sVtries
p1140
I1865
sVplane
p1141
I193
sVlighting
p1142
I1552
sVcoming
p1143
I542
sVa
p1144
I0
sVworkstation
p1145
I1866
sVshort
p1146
I951
sVcrowded
p1147
I768
sVcoat
p1148
I1173
sVeats
p1149
I850
sVshore
p1150
I633
sVshade
p1151
I858
sVegg
p1152
I981
sVplaying
p1153
I63
sVpatio
p1154
I1076
sVpans
p1155
I872
sVmexican
p1156
I1596
sVartwork
p1157
I1973
sVcyclists
p1158
I1651
sVheld
p1159
I805
sVpaper
p1160
I284
sVthrough
p1161
I109
sVsigns
p1162
I246
sVsmiling
p1163
I259
sVits
p1164
I151
sVstyle
p1165
I859
sVmattress
p1166
I1744
sVtravelling
p1167
I1434
sVsoccer
p1168
I279
sVsauce
p1169
I613
sVevening
p1170
I1235
sVreturn
p1171
I1645
sVfood
p1172
I58
sVmales
p1173
I1692
sVnumber
p1174
I367
sVwalls
p1175
I383
sVfoot
p1176
I720
sVtowering
p1177
I1867
sVhotdogs
p1178
I1597
sVsnowboards
p1179
I1239
sVstopped
p1180
I512
sVsnowboarders
p1181
I1188
sVnotes
p1182
I1757
sVtrailer
p1183
I738
sVheavy
p1184
I1465
sVhouse
p1185
I403
sVfish
p1186
I1693
sVhard
p1187
I769
sVoil
p1188
I1687
sVbackpacks
p1189
I1695
sVevent
p1190
I807
sVbikers
p1191
I1868
sVflower
p1192
I571
sVsurrounded
p1193
I413
sVhill
p1194
I249
sVprint
p1195
I1696
sVhighway
p1196
I614
sVforeground
p1197
I855
sVdirt
p1198
I210
sVsteeple
p1199
I1457
sVstory
p1200
I1396
sVbulls
p1201
I1935
sVhouses
p1202
I757
sVbase
p1203
I483
sVcookie
p1204
I1745
sVput
p1205
I1652
sVguy
p1206
I275
sVbushes
p1207
I719
sVdishwasher
p1208
I1471
sVloaf
p1209
I1801
sVcomputers
p1210
I448
sVamerican
p1211
I1337
sVsnowboarding
p1212
I1012
sVfallen
p1213
I1395
sVthrows
p1214
I796
sVstatue
p1215
I595
sVdoughnuts
p1216
I808
sVreflected
p1217
I1096
sVfancy
p1218
I1189
sVfeeder
p1219
I1599
sVfeet
p1220
I1059
sVdone
p1221
I1698
sVcups
p1222
I851
sVtoasted
p1223
I1576
sVpasses
p1224
I1553
sVhorse
p1225
I102
sVheads
p1226
I1125
sVjet
p1227
I368
sVleading
p1228
I1126
sVhangs
p1229
I982
sVcollar
p1230
I1761
sVleash
p1231
I1174
sVstation
p1232
I220
sVstorm
p1233
I1870
sVbanana
p1234
I352
sVstore
p1235
I429
sVpara
p1236
I1936
sVpump
p1237
I1922
sVhotel
p1238
I644
sVpark
p1239
I148
sVpart
p1240
I897
sVstairs
p1241
I1145
sVsurfboard
p1242
I180
sVkind
p1243
I952
sVdouble
p1244
I226
sVgrey
p1245
I395
sVbride
p1246
I1237
sVstall
p1247
I773
sVoutdoors
p1248
I774
sVdispenser
p1249
I1746
sVtoward
p1250
I783
sVbooth
p1251
I1341
sVuniforms
p1252
I860
sVurban
p1253
I1378
sValongside
p1254
I784
sVjuice
p1255
I758
sVgraffiti
p1256
I648
sVblond
p1257
I1601
sVaged
p1258
I1511
sVlid
p1259
I1097
sVmountain
p1260
I257
sVbuilt
p1261
I996
sVdancing
p1262
I1937
sVofficers
p1263
I1029
sVcouch
p1264
I150
sVlit
p1265
I581
sValso
p1266
I1306
sVsandwiches
p1267
I1060
sVplay
p1268
I419
sVtowards
p1269
I504
sVelectric
p1270
I1061
sVeggs
p1271
I1263
sVreach
p1272
I1747
sVplat
p1273
I1794
sVcigarette
p1274
I1554
sVplan
p1275
I1795
sVeaten
p1276
I721
sVrefrigerator
p1277
I242
sVappear
p1278
I1634
sVpatterned
p1279
I1748
sVwindows
p1280
I551
sVclear
p1281
I785
sVcover
p1282
I1212
sVartistic
p1283
I1796
sVclean
p1284
I401
sVlying
p1285
I408
sVgold
p1286
I873
sVhugging
p1287
I1110
sVhillside
p1288
I704
sVfreight
p1289
I1435
sVperched
p1290
I577
sVblender
p1291
I752
sVgiant
p1292
I705
sVstreetlights
p1293
I1797
sVscooter
p1294
I786
sVpretty
p1295
I528
sVcircle
p1296
I1236
sVhis
p1297
I45
sVhit
p1298
I278
sVsunny
p1299
I599
sVtrees
p1300
I139
sVbatter
p1301
I418
sVpreparing
p1302
I328
sVduring
p1303
I264
sVsill
p1304
I942
sVhim
p1305
I409
sVcatches
p1306
I1472
sVcatcher
p1307
I694
sVmotorcycles
p1308
I316
sVtabby
p1309
I963
sVstored
p1310
I1952
sVgloves
p1311
I1098
sVriver
p1312
I318
sVapproaching
p1313
I830
sVset
p1314
I299
sVart
p1315
I747
sVdump
p1316
I1555
sVthrowing
p1317
I414
sVsee
p1318
I1020
sVindividual
p1319
I1512
sVare
p1320
I19
sVsea
p1321
I1214
sVclose
p1322
I137
sVarm
p1323
I728
sVbarn
p1324
I953
sVpictures
p1325
I461
sVhalves
p1326
I1699
sVfans
p1327
I1367
sVvarious
p1328
I290
sVcrosswalk
p1329
I1307
sVpictured
p1330
I1030
sVbrush
p1331
I663
sVmissing
p1332
I983
sVoutfit
p1333
I1013
sVaircraft
p1334
I1513
sVleague
p1335
I928
sVrestaurant
p1336
I360
sVbarely
p1337
I1603
sVforeign
p1338
I1514
sVroman
p1339
I1749
sVwhole
p1340
I1799
sVstoplight
p1341
I1653
sVload
p1342
I1800
sVflies
p1343
I645
sVbell
p1344
I1077
sVdinning
p1345
I1565
sVchurch
p1346
I831
sValong
p1347
I208
sVstamp
p1348
I1873
sVhitting
p1349
I522
sVpeppers
p1350
I852
sVbrick
p1351
I322
sVempty
p1352
I293
sVresting
p1353
I520
sVsiting
p1354
I1190
sVram
p1355
I1965
sVflight
p1356
I1397
sVsquirrel
p1357
I1437
sVpassengers
p1358
I597
sVfire
p1359
I143
sVgas
p1360
I898
sVelse
p1361
I1654
sVinstructor
p1362
I1556
sVwheeled
p1363
I1308
sVplants
p1364
I456
sVfur
p1365
I1938
sVlook
p1366
I398
sVpedestrian
p1367
I1751
sVski
p1368
I269
sVrope
p1369
I1238
sVwhile
p1370
I61
sVmatch
p1371
I627
sVleaning
p1372
I362
sVfun
p1373
I943
sVkissing
p1374
I1802
sVidentical
p1375
I1398
sVleans
p1376
I1062
sVducks
p1377
I964
sVreads
p1378
I723
sVobstacle
p1379
I1284
sVtriple
p1380
I1803
sVready
p1381
I215
sVfunny
p1382
I1438
sVshirt
p1383
I174
sVelevated
p1384
I1804
sVhallway
p1385
I1655
sVused
p1386
I923
sVcement
p1387
I763
sVviewing
p1388
I1439
sVflown
p1389
I1285
sVmoving
p1390
I561
sVassortment
p1391
I567
sVstack
p1392
I1078
sVolder
p1393
I437
sVdocked
p1394
I885
sVconcrete
p1395
I649
sVedge
p1396
I552
sVflags
p1397
I944
sVhotdog
p1398
I1063
sVpigeons
p1399
I1752
sVusing
p1400
I302
sVtables
p1401
I435
sVloading
p1402
I954
sVtablet
p1403
I1286
sVcup
p1404
I359
sVblankets
p1405
I1688
sVworkers
p1406
I1287
sVsignals
p1407
I1604
sVkites
p1408
I243
sVcrying
p1409
I1805
sVfurniture
p1410
I380
sVsurprised
p1411
I1605
sVbin
p1412
I1368
sVvendor
p1413
I1753
sVbig
p1414
I162
sVskateboards
p1415
I965
sVgame
p1416
I94
sVbaskets
p1417
I998
sVbit
p1418
I1939
sVwings
p1419
I1874
sVformal
p1420
I1806
sVsemi
p1421
I1701
sVshaped
p1422
I682
sVmessage
p1423
I1329
sVglove
p1424
I678
sVshapes
p1425
I1127
sVindividuals
p1426
I1309
sVcones
p1427
I1099
sVspring
p1428
I1807
sVsome
p1429
I33
sVback
p1430
I182
sVgreeting
p1431
I1808
sVpalm
p1432
I966
sVornaments
p1433
I1940
sVmirror
p1434
I156
sVcandle
p1435
I1111
sVsized
p1436
I1399
sVpet
p1437
I1112
sVpen
p1438
I497
sVornate
p1439
I957
sVlaughing
p1440
I1369
sVbe
p1441
I340
sVrun
p1442
I652
sVjumps
p1443
I1497
sVrug
p1444
I984
sVstem
p1445
I1474
sVstep
p1446
I1875
sVstew
p1447
I1475
sVby
p1448
I49
sVwildlife
p1449
I1606
sVpiles
p1450
I1942
sVsurfers
p1451
I748
sVpiled
p1452
I1515
sVrange
p1453
I1400
sVbeans
p1454
I997
sVshiny
p1455
I1476
sVblock
p1456
I1100
sVrepair
p1457
I1809
sVgarbage
p1458
I1310
sVinto
p1459
I138
sVwithin
p1460
I1876
sVframed
p1461
I1702
sVdownhill
p1462
I1266
sVcanal
p1463
I1754
sVjockey
p1464
I1176
sVtasting
p1465
I1607
sVplacing
p1466
I1477
sVlone
p1467
I824
sVfast
p1468
I1169
sVhomemade
p1469
I1114
sVsuit
p1470
I255
sVforward
p1471
I1703
sVmountains
p1472
I608
sVhimself
p1473
I843
sVposter
p1474
I1079
sVatop
p1475
I669
sVt-shirt
p1476
I1441
sVcloth
p1477
I861
sVdelta
p1478
I1257
sVline
p1479
I356
sVrelaxes
p1480
I1608
sVposted
p1481
I1311
sVfries
p1482
I457
sVup
p1483
I34
sVus
p1484
I1609
sVmobile
p1485
I1338
sVplanes
p1486
I487
sVjumbo
p1487
I1943
sVfried
p1488
I1288
sVaerial
p1489
I1312
sVadults
p1490
I759
sVstripped
p1491
I1301
sVentrance
p1492
I1328
sVsingle
p1493
I656
sVwarning
p1494
I1289
sVcurb
p1495
I572
sVnecks
p1496
I1944
sVcafe
p1497
I1138
sVrainy
p1498
I797
sVlemon
p1499
I1557
sVbacks
p1500
I1558
sVnap
p1501
I1877
sVtarp
p1502
I1810
sVnice
p1503
I562
sVbrushing
p1504
I507
sVsmiles
p1505
I924
sVspectators
p1506
I1157
sVmustard
p1507
I862
sVprepared
p1508
I1047
sVhelping
p1509
I1402
sVprepares
p1510
I657
sVdesert
p1511
I1115
sVstructure
p1512
I1259
sVlane
p1513
I1215
sVland
p1514
I918
sVfighter
p1515
I967
sVoverlooking
p1516
I945
sVpedestrians
p1517
I1080
sVvehicles
p1518
I533
sVcooked
p1519
I814
sVbeverage
p1520
I1303
sVfresh
p1521
I874
sVberries
p1522
I1657
sVhaving
p1523
I521
sVdesserts
p1524
I1478
sVgo
p1525
I787
sVbarbecue
p1526
I1658
sVwindowsill
p1527
I1610
sVfenced
p1528
I703
sVyoung
p1529
I44
sVsuits
p1530
I1045
sVshack
p1531
I1659
sVfrisbees
p1532
I1116
sVcluttered
p1533
I772
sVgravel
p1534
I1431
sVskiies
p1535
I1945
sVgarden
p1536
I832
sVdessert
p1537
I946
sVkitty
p1538
I1339
sVwave
p1539
I206
sVspoon
p1540
I683
sVcrosses
p1541
I1662
sVputting
p1542
I770
sVtrough
p1543
I1660
sVcellular
p1544
I1340
sVpracticing
p1545
I1146
sVdrinking
p1546
I389
sVharbor
p1547
I919
sVbutton
p1548
I1262
sVtry
p1549
I1611
sVtunnel
p1550
I1947
sVrace
p1551
I800
sV?
p1552
I1489
sVrack
p1553
I780
sVsmaller
p1554
I1758
sVcrow
p1555
I1946
sVmural
p1556
I1516
sVjump
p1557
I986
sVblowing
p1558
I1219
sVvideo
p1559
I271
sVtraveling
p1560
I326
sVodd
p1561
I1602
sVsausage
p1562
I809
sVcupcakes
p1563
I1366
sVplays
p1564
I653
sVpower
p1565
I1073
sVpaintings
p1566
I1661
sVgiving
p1567
I1213
sVpaddle
p1568
I1177
sVcell
p1569
I203
sVwaiting
p1570
I354
sVpoles
p1571
I538
sVt
p1572
I1858
sVrailway
p1573
I1389
sV;
p1574
I1479
sVbird
p1575
I183
sVbody
p1576
I366
sVled
p1577
I1612
sVstance
p1578
I1480
sVleg
p1579
I1022
sVgathered
p1580
I464
sVcommercial
p1581
I760
sVfollowing
p1582
I1780
sVobjects
p1583
I1517
sVsink
p1584
I113
sVothers
p1585
I815
sVsexy
p1586
I1759
sVgreat
p1587
I1811
sVlarger
p1588
I1264
sVleaving
p1589
I1128
sVmakes
p1590
I875
sVwig
p1591
I1878
sVapple
p1592
I729
sVshake
p1593
I1914
sVwii
p1594
I307
sVwit
p1595
I1481
sVmotor
p1596
I509
sVduck
p1597
I1559
sVtools
p1598
I1216
sVcloud
p1599
I1879
sVnursing
p1600
I1539
sVstanding
p1601
I16
sVstrapped
p1602
I1880
sVuse
p1603
I839
sVfrom
p1604
I93
sVfigure
p1605
I1957
sVrackets
p1606
I1113
sVnext
p1607
I17
sVfew
p1608
I410
sVcamera
p1609
I256
sVvehicle
p1610
I529
sVstage
p1611
I1600
sVsort
p1612
I1403
sVporch
p1613
I1404
sVtrail
p1614
I726
sVcarrying
p1615
I324
sVbaby
p1616
I195
sVwomen
p1617
I181
sVballs
p1618
I1313
sVanimals
p1619
I285
sVarched
p1620
I1881
sVsalad
p1621
I462
sVthis
p1622
I144
sVride
p1623
I573
sVdonut
p1624
I568
sVcrossed
p1625
I1240
sVthin
p1626
I1082
sVof
p1627
I3
sVcontrol
p1628
I695
sVbent
p1629
I1314
sVplate
p1630
I46
sVpieces
p1631
I579
sVhigh
p1632
I329
sVcarrot
p1633
I749
sVpulling
p1634
I348
sVsomething
p1635
I266
sVtan
p1636
I863
sVpaws
p1637
I1812
sVonions
p1638
I730
sVlamb
p1639
I999
sVsit
p1640
I213
sVskirt
p1641
I925
sVsix
p1642
I1191
sVlocated
p1643
I1158
sVlamp
p1644
I544
sVforest
p1645
I469
sVanimal
p1646
I394
sVtoddler
p1647
I908
sVcircular
p1648
I1663
sVbuildings
p1649
I346
sVcupboard
p1650
I1760
sVfarm
p1651
I1482
sVstop
p1652
I161
sVwaters
p1653
I1178
sVtied
p1654
I876
sVnotebook
p1655
I1442
sVtomato
p1656
I1613
sVchasing
p1657
I1370
sVlight
p1658
I188
sVcounter
p1659
I158
sVlines
p1660
I1117
sVlined
p1661
I498
sVbathing
p1662
I1159
sVrusted
p1663
I1014
sVmeter
p1664
I472
sVincluding
p1665
I696
sVcostume
p1666
I926
sVhorns
p1667
I1948
sVbunch
p1668
I187
sVbanner
p1669
I1798
sVorange
p1670
I199
sVcovered
p1671
I128
sVputs
p1672
I1904
sVdesigns
p1673
I1813
sVbat
p1674
I166
sVoranges
p1675
I390
sVdock
p1676
I687
sVcutting
p1677
I253
sVhands
p1678
I388
sVfront
p1679
I43
sVcage
p1680
I781
sVday
p1681
I231
sVsniffing
p1682
I1315
sVslide
p1683
I1664
sVcrossing
p1684
I465
sVbeneath
p1685
I1814
sVonlookers
p1686
I1704
sVtray
p1687
I355
sVglasses
p1688
I286
sVtents
p1689
I1316
sVdoing
p1690
I261
sVmulticolored
p1691
I1883
sVbooks
p1692
I616
sVbay
p1693
I1354
sVsandy
p1694
I557
sVout
p1695
I85
sVentertainment
p1696
I1484
sVbunches
p1697
I833
sVperforms
p1698
I1405
sVpeeling
p1699
I1882
sVelectronics
p1700
I1049
sVred
p1701
I42
sVumbrella
p1702
I134
sS'UNKNOWN_TOKEN'
p1703
I1999
sVgraze
p1704
I735
sVcollection
p1705
I1048
sVyard
p1706
I488
sVprepare
p1707
I1466
sVskateboard
p1708
I91
sVyarn
p1709
I1706
sVproduce
p1710
I1091
sVwading
p1711
I1884
sVvegetables
p1712
I200
sVscene
p1713
I494
sVreaches
p1714
I1830
sVowner
p1715
I1614
sVstump
p1716
I1885
sVlounging
p1717
I1588
sVumbrellas
p1718
I349
sVbears
p1719
I332
sVfilthy
p1720
I1886
sVpots
p1721
I816
sVwrapper
p1722
I1887
sVtheir
p1723
I98
sVdecorations
p1724
I1317
sVwrapped
p1725
I788
sVtourists
p1726
I1719
sVcabin
p1727
I1371
sVpaved
p1728
I886
sVstomach
p1729
I1598
sVgear
p1730
I555
sVshorts
p1731
I688
sVshelf
p1732
I492
sVbranches
p1733
I1981
sVherself
p1734
I1342
sVsteel
p1735
I637
sVphotograph
p1736
I422
sVben
p1737
I1101
sVbed
p1738
I66
sVsculpture
p1739
I1192
sVexhibit
p1740
I1888
sVcarrots
p1741
I358
sVtidy
p1742
I1949
sVhave
p1743
I473
sVportrait
p1744
I1871
sVmicrophone
p1745
I1485
sVdishes
p1746
I480
sVmid
p1747
I1050
sVwaffles
p1748
I1815
sVwhich
p1749
I731
sVso
p1750
I1031
sVsoap
p1751
I1444
sVvegetation
p1752
I1193
sVwho
p1753
I336
sVconnected
p1754
I1241
sVbut
p1755
I1711
sVdevice
p1756
I877
sVclass
p1757
I1194
sVcellphone
p1758
I697
sVgather
p1759
I1518
sVface
p1760
I375
sVpipe
p1761
I854
sVconstruction
p1762
I836
sVpainting
p1763
I650
sVkite
p1764
I142
sVstove
p1765
I250
sVindoor
p1766
I789
sVcrate
p1767
I1665
sS'SENTENCE_END'
p1768
I1998
sVbikes
p1769
I412
sVparked
p1770
I62
sVbedroom
p1771
I274
sVsoldiers
p1772
I927
sVchicken
p1773
I609
sVha
p1774
I1490
sVunfinished
p1775
I1889
sVtire
p1776
I1486
sVjar
p1777
I1818
sVpickup
p1778
I1436
sVcontrols
p1779
I1372
sVshould
p1780
I1819
sVterminal
p1781
I1217
sVtape
p1782
I1318
sVriding
p1783
I47
sVsurfs
p1784
I1890
sVpartially
p1785
I794
sVhall
p1786
I1843
sVphotographs
p1787
I1373
sVwatching
p1788
I280
sVstripes
p1789
I1637
sVbear
p1790
I86
sVstriped
p1791
I556
sVchips
p1792
I634
sVgray
p1793
I353
sVhitter
p1794
I1764
sVtrucks
p1795
I569
sVmarried
p1796
I1560
sVteams
p1797
I1374
sVstuff
p1798
I1319
sVshe
p1799
I593
sVforce
p1800
I1898
sVmotorcycle
p1801
I110
sVspotted
p1802
I1891
sVhardwood
p1803
I1102
sVframe
p1804
I714
sVcuts
p1805
I1487
sVterrain
p1806
I1488
sVherding
p1807
I1966
sVcomputer
p1808
I104
sVdriveway
p1809
I1666
sVskateboarding
p1810
I523
sVracket
p1811
I228
sVpacked
p1812
I1218
sVwire
p1813
I753
sVattempting
p1814
I1118
sVbelow
p1815
I610
sVwritten
p1816
I1989
sVcloudless
p1817
I1820
sVclosed
p1818
I1195
sVprogress
p1819
I1707
sVpants
p1820
I909
sVopening
p1821
I1065
sVbeverages
p1822
I1561
sVkicking
p1823
I1008
sVpolice
p1824
I466
sVstaring
p1825
I690
sVtaking
p1826
I252
sVramp
p1827
I330
sVdoorway
p1828
I1231
sVpassing
p1829
I626
sVstatues
p1830
I1708
sVwall
p1831
I132
sVwalk
p1832
I337
sVtable
p1833
I22
sVtrays
p1834
I864
sVpouring
p1835
I1519
sVmotorbike
p1836
I1406
sVmuddy
p1837
I1520
sVpolka
p1838
I1892
sVcurtain
p1839
I899
sVbbq
p1840
I1407
sVcommuter
p1841
I878
sVboth
p1842
I722
sVpainted
p1843
I732
sVairplanes
p1844
I588
sVcontroller
p1845
I423
sVdeep
p1846
I1927
sVbull
p1847
I1000
sVsmoking
p1848
I1668
sVmulti
p1849
I1521
sVplaid
p1850
I1709
sVcouple
p1851
I76
sVabandoned
p1852
I1290
sVplain
p1853
I900
sVrunway
p1854
I351
sVwild
p1855
I662
sVbathtub
p1856
I834
sVtoothbrushes
p1857
I1160
sVripe
p1858
I1616
sValmost
p1859
I1951
sVlush
p1860
I382
sVsurface
p1861
I471
sVswinging
p1862
I319
sVlambs
p1863
I1032
sVsits
p1864
I97
sVskateboarders
p1865
I978
sVvintage
p1866
I519
sVcross
p1867
I476
sVparty
p1868
I844
sVgets
p1869
I1291
sVtomatoes
p1870
I709
sVcellphones
p1871
I1562
sVball
p1872
I71
sVdrink
p1873
I503
sVupon
p1874
I1821
sVbroccoli
p1875
I306
sVoff
p1876
I219
sVreflection
p1877
I539
sVi
p1878
I1242
sVvariety
p1879
I600
sVwell
p1880
I761
sVsets
p1881
I1710
sVposition
p1882
I1522
sVbending
p1883
I1197
sVbananas
p1884
I209
sVcakes
p1885
I793
sVclocks
p1886
I835
sVfishing
p1887
I1563
sVseats
p1888
I1001
sVtoilets
p1889
I1564
sVnow
p1890
I1639
sVconsole
p1891
I1762
sVresidential
p1892
I968
sVpoint
p1893
I1700
sVsky
p1894
I157
sVlake
p1895
I415
sVbench
p1896
I126
sVother
p1897
I67
sVwet
p1898
I638
sVballoons
p1899
I1344
sVsmart
p1900
I922
sVenclosed
p1901
I1081
sVbranch
p1902
I865
sVchecking
p1903
I1147
sVfive
p1904
I670
sVdesk
p1905
I145
sVpropeller
p1906
I1033
sVdoughnut
p1907
I710
sVintersection
p1908
I416
sVpier
p1909
I1148
sVpies
p1910
I1618
sVtrash
p1911
I643
sVlike
p1912
I400
sVsizes
p1913
I1243
sVchairs
p1914
I262
sVsofa
p1915
I575
sVcandy
p1916
I1161
sVcontrollers
p1917
I1345
sVgarage
p1918
I1083
sVsoft
p1919
I1523
sVovercast
p1920
I1617
sVshed
p1921
I1894
sVhair
p1922
I407
sVhome
p1923
I417
sVlead
p1924
I1763
sVgoats
p1925
I1750
sVdoes
p1926
I736
sVblurry
p1927
I754
sVhose
p1928
I1179
sVreaching
p1929
I639
sVmitt
p1930
I1408
sVrock
p1931
I605
sVbathroom
p1932
I60
sVpasta
p1933
I910
sVhiding
p1934
I1220
sVabout
p1935
I310
sVboards
p1936
I505
sVgetting
p1937
I282
sVshaking
p1938
I1483
sVcarries
p1939
I1292
sVtoppings
p1940
I698
sVbeige
p1941
I1103
sVpuppies
p1942
I1669
sVtongue
p1943
I1895
sVpastries
p1944
I887
sVletters
p1945
I1822
sVwilderness
p1946
I1409
sVmushrooms
p1947
I1244
sVtrunks
p1948
I1983
sVtiny
p1949
I932
sVfemale
p1950
I439
sVhang
p1951
I1272
sVvan
p1952
I955
sVstainless
p1953
I810
sVmuseum
p1954
I1245
sVspots
p1955
I1823
sVairline
p1956
I1690
sVbus
p1957
I56
sVcoke
p1958
I1343
sVextended
p1959
I1694
sVstrawberries
p1960
I1104
sVbun
p1961
I817
sVbookshelf
p1962
I1524
sVear
p1963
I1064
sVeat
p1964
I570
sVhe
p1965
I467
sVmade
p1966
I430
sVplaces
p1967
I1149
sVchained
p1968
I1824
sVprotesting
p1969
I1765
sVflip
p1970
I1268
sVplaced
p1971
I513
sVcarriage
p1972
I888
sVmonument
p1973
I1619
sVcake
p1974
I80
sVpiece
p1975
I248
sVdisplay
p1976
I260
sVskating
p1977
I1269
sVpin
p1978
I1953
sVcircus
p1979
I1954
sVpie
p1980
I1002
sVmaroon
p1981
I1129
sVpig
p1982
I1955
sVutensils
p1983
I929
sVtabletop
p1984
I1712
sVbalcony
p1985
I1162
sVingredients
p1986
I987
sVdressed
p1987
I342
sVassorted
p1988
I1046
sVbook
p1989
I385
sVledge
p1990
I679
sVgranite
p1991
I1525
sVdresser
p1992
I1713
sVfrisbee
p1993
I146
sVkinds
p1994
I956
sVfoil
p1995
I1671
sVnintendo
p1996
I640
sVfriends
p1997
I1163
sVcraft
p1998
I1723
sVrural
p1999
I1221
sVbaked
p2000
I1270
s.